---
triple:          'arm64-apple-darwin'
binary-path:     '/Users/josh/Projects/CPSC323---Compiler/Joshsmessaround/compiler/maintest'
relocations:
  - { offset: 0x52, size: 0x8, addend: 0x0, symName: _productions, symObjAddr: 0x92780, symBinAddr: 0x100024000, symSize: 0x0 }
  - { offset: 0x737B, size: 0x8, addend: 0x0, symName: __ZNSt3__1L19piecewise_constructE, symObjAddr: 0x1DD19, symBinAddr: 0x10001F685, symSize: 0x0 }
  - { offset: 0x9760, size: 0x8, addend: 0x0, symName: __ZNSt3__124__put_character_sequenceB8ne180100IcNS_11char_traitsIcEEEERNS_13basic_ostreamIT_T0_EES7_PKS4_m, symObjAddr: 0x8580, symBinAddr: 0x100009C18, symSize: 0x1EC }
  - { offset: 0xBE33, size: 0x8, addend: 0x0, symName: __ZNSt3__1lsB8ne180100INS_11char_traitsIcEEEERNS_13basic_ostreamIcT_EES6_PKc, symObjAddr: 0x6538, symBinAddr: 0x100007BD0, symSize: 0x48 }
  - { offset: 0xBE79, size: 0x8, addend: 0x0, symName: __ZNSt3__14endlB8ne180100IcNS_11char_traitsIcEEEERNS_13basic_ostreamIT_T0_EES7_, symObjAddr: 0x65AC, symBinAddr: 0x100007C44, symSize: 0x58 }
  - { offset: 0xBEB9, size: 0x8, addend: 0x0, symName: __ZNSt3__1lsB8ne180100IcNS_11char_traitsIcEENS_9allocatorIcEEEERNS_13basic_ostreamIT_T0_EES9_RKNS_12basic_stringIS6_S7_T1_EE, symObjAddr: 0x662C, symBinAddr: 0x100007CC4, symSize: 0x4C }
  - { offset: 0xBF11, size: 0x8, addend: 0x0, symName: __ZNSt3__1neB8ne180100ERKNS_16__deque_iteratorINS_12basic_stringIcNS_11char_traitsIcEENS_9allocatorIcEEEEPS6_RS6_PS7_lLl170EEESC_, symObjAddr: 0x7C24, symBinAddr: 0x1000092BC, symSize: 0x34 }
  - { offset: 0xBF4E, size: 0x8, addend: 0x0, symName: __ZNSt3__1eqB8ne180100ERKNS_16__deque_iteratorINS_12basic_stringIcNS_11char_traitsIcEENS_9allocatorIcEEEEPS6_RS6_PS7_lLl170EEESC_, symObjAddr: 0x7EDC, symBinAddr: 0x100009574, symSize: 0x30 }
  - { offset: 0xBF8B, size: 0x8, addend: 0x0, symName: __ZNSt3__119__libcpp_deallocateB8ne180100EPvmm, symObjAddr: 0x7FFC, symBinAddr: 0x100009694, symSize: 0x30 }
  - { offset: 0xBFD3, size: 0x8, addend: 0x0, symName: __ZNSt3__127__do_deallocate_handle_sizeB8ne180100IJEEEvPvmDpT_, symObjAddr: 0x802C, symBinAddr: 0x1000096C4, symSize: 0x28 }
  - { offset: 0xC011, size: 0x8, addend: 0x0, symName: __ZNSt3__124__libcpp_operator_deleteB8ne180100IJPvEEEvDpT_, symObjAddr: 0x8054, symBinAddr: 0x1000096EC, symSize: 0x24 }
  - { offset: 0xC046, size: 0x8, addend: 0x0, symName: __ZNSt3__112__to_addressB8ne180100IPNS_12basic_stringIcNS_11char_traitsIcEENS_9allocatorIcEEEEEEPT_S9_, symObjAddr: 0x82D8, symBinAddr: 0x100009970, symSize: 0x14 }
  - { offset: 0xC07B, size: 0x8, addend: 0x0, symName: __ZNSt3__118__constexpr_strlenB8ne180100EPKc, symObjAddr: 0x855C, symBinAddr: 0x100009BF4, symSize: 0x24 }
  - { offset: 0xC0A7, size: 0x8, addend: 0x0, symName: __ZNSt3__116__pad_and_outputB8ne180100IcNS_11char_traitsIcEEEENS_19ostreambuf_iteratorIT_T0_EES6_PKS4_S8_S8_RNS_8ios_baseES4_, symObjAddr: 0x8804, symBinAddr: 0x100009E9C, symSize: 0x240 }
  - { offset: 0xC176, size: 0x8, addend: 0x0, symName: __ZNSt3__19use_facetB8ne180100INS_5ctypeIcEEEERKT_RKNS_6localeE, symObjAddr: 0x8D90, symBinAddr: 0x10000A428, symSize: 0x2C }
  - { offset: 0xC643, size: 0x8, addend: 0x0, symName: __ZNSt3__112__to_addressB8ne180100IKcEEPT_S3_, symObjAddr: 0x8E28, symBinAddr: 0x10000A4C0, symSize: 0x14 }
  - { offset: 0xC6AB, size: 0x8, addend: 0x0, symName: __ZNSt3__112__to_addressB8ne180100INS_12basic_stringIcNS_11char_traitsIcEENS_9allocatorIcEEEEEEPT_S8_, symObjAddr: 0x9214, symBinAddr: 0x10000A8AC, symSize: 0x14 }
  - { offset: 0xC6E0, size: 0x8, addend: 0x0, symName: __ZNSt3__122__make_exception_guardB8ne180100INS_6vectorINS_12basic_stringIcNS_11char_traitsIcEENS_9allocatorIcEEEENS5_IS7_EEE16__destroy_vectorEEENS_28__exception_guard_exceptionsIT_EESC_, symObjAddr: 0x9408, symBinAddr: 0x10000AAA0, symSize: 0x40 }
  - { offset: 0xC715, size: 0x8, addend: 0x0, symName: __ZNSt3__119__allocate_at_leastB8ne180100INS_9allocatorINS_12basic_stringIcNS_11char_traitsIcEENS1_IcEEEEEEEENS_19__allocation_resultINS_16allocator_traitsIT_E7pointerEEERSA_m, symObjAddr: 0x97C4, symBinAddr: 0x10000AE5C, symSize: 0x40 }
  - { offset: 0xC758, size: 0x8, addend: 0x0, symName: __ZNSt3__13minB8ne180100ImEERKT_S3_S3_, symObjAddr: 0x9840, symBinAddr: 0x10000AED8, symSize: 0x2C }
  - { offset: 0xC99C, size: 0x8, addend: 0x0, symName: __ZNSt3__13minB8ne180100ImNS_6__lessIvvEEEERKT_S5_S5_T0_, symObjAddr: 0x98CC, symBinAddr: 0x10000AF64, symSize: 0x54 }
  - { offset: 0xCA3B, size: 0x8, addend: 0x0, symName: __ZNSt3__120__throw_length_errorB8ne180100EPKc, symObjAddr: 0x99AC, symBinAddr: 0x10000B044, symSize: 0x64 }
  - { offset: 0xCA63, size: 0x8, addend: 0x0, symName: __ZNSt3__117__libcpp_allocateB8ne180100Emm, symObjAddr: 0x9B18, symBinAddr: 0x10000B1B0, symSize: 0x28 }
  - { offset: 0xCAA0, size: 0x8, addend: 0x0, symName: __ZNSt3__121__libcpp_operator_newB8ne180100IJmEEEPvDpT_, symObjAddr: 0x9B40, symBinAddr: 0x10000B1D8, symSize: 0x24 }
  - { offset: 0xCAD9, size: 0x8, addend: 0x0, symName: __ZNSt3__130__uninitialized_allocator_copyB8ne180100INS_9allocatorINS_12basic_stringIcNS_11char_traitsIcEENS1_IcEEEEEEPKS6_S9_PS6_EET2_RT_T0_T1_SB_, symObjAddr: 0x9BD8, symBinAddr: 0x10000B270, symSize: 0x80 }
  - { offset: 0xCB76, size: 0x8, addend: 0x0, symName: __ZNSt3__114__unwrap_rangeB8ne180100IPKNS_12basic_stringIcNS_11char_traitsIcEENS_9allocatorIcEEEES8_EENS_4pairIT0_SA_EET_SC_, symObjAddr: 0x9CD0, symBinAddr: 0x10000B368, symSize: 0x60 }
  - { offset: 0xCBC2, size: 0x8, addend: 0x0, symName: __ZNSt3__135__uninitialized_allocator_copy_implB8ne180100INS_9allocatorINS_12basic_stringIcNS_11char_traitsIcEENS1_IcEEEEEEPKS6_S9_PS6_EET2_RT_T0_T1_SB_, symObjAddr: 0x9D30, symBinAddr: 0x10000B3C8, symSize: 0xF4 }
  - { offset: 0xCC60, size: 0x8, addend: 0x0, symName: __ZNSt3__113__unwrap_iterB8ne180100IPNS_12basic_stringIcNS_11char_traitsIcEENS_9allocatorIcEEEENS_18__unwrap_iter_implIS7_Lb1EEELi0EEEDTclsrT0_8__unwrapclsr3stdE7declvalIT_EEEESB_, symObjAddr: 0x9E24, symBinAddr: 0x10000B4BC, symSize: 0x24 }
  - { offset: 0xCCA4, size: 0x8, addend: 0x0, symName: __ZNSt3__113__rewrap_iterB8ne180100IPNS_12basic_stringIcNS_11char_traitsIcEENS_9allocatorIcEEEES7_NS_18__unwrap_iter_implIS7_Lb1EEEEET_SA_T0_, symObjAddr: 0x9E48, symBinAddr: 0x10000B4E0, symSize: 0x3C }
  - { offset: 0xCCF9, size: 0x8, addend: 0x0, symName: __ZNSt3__19make_pairB8ne180100IPKNS_12basic_stringIcNS_11char_traitsIcEENS_9allocatorIcEEEES8_EENS_4pairINS_18__unwrap_ref_decayIT_E4typeENSA_IT0_E4typeEEEOSB_OSE_, symObjAddr: 0x9E84, symBinAddr: 0x10000B51C, symSize: 0x38 }
  - { offset: 0xCD48, size: 0x8, addend: 0x0, symName: __ZNSt3__113__unwrap_iterB8ne180100IPKNS_12basic_stringIcNS_11char_traitsIcEENS_9allocatorIcEEEENS_18__unwrap_iter_implIS8_Lb1EEELi0EEEDTclsrT0_8__unwrapclsr3stdE7declvalIT_EEEESC_, symObjAddr: 0x9EBC, symBinAddr: 0x10000B554, symSize: 0x24 }
  - { offset: 0xCEB3, size: 0x8, addend: 0x0, symName: __ZNSt3__112__to_addressB8ne180100IKNS_12basic_stringIcNS_11char_traitsIcEENS_9allocatorIcEEEEEEPT_S9_, symObjAddr: 0x9F74, symBinAddr: 0x10000B60C, symSize: 0x14 }
  - { offset: 0xCEE8, size: 0x8, addend: 0x0, symName: __ZNSt3__122__make_exception_guardB8ne180100INS_29_AllocatorDestroyRangeReverseINS_9allocatorINS_12basic_stringIcNS_11char_traitsIcEENS2_IcEEEEEEPS7_EEEENS_28__exception_guard_exceptionsIT_EESC_, symObjAddr: 0x9F88, symBinAddr: 0x10000B620, symSize: 0x4C }
  - { offset: 0xCF1E, size: 0x8, addend: 0x0, symName: __ZNSt3__119__allocator_destroyB8ne180100INS_9allocatorINS_12basic_stringIcNS_11char_traitsIcEENS1_IcEEEEEENS_16reverse_iteratorIPS6_EESA_EEvRT_T0_T1_, symObjAddr: 0xA218, symBinAddr: 0x10000B8B0, symSize: 0x70 }
  - { offset: 0xCF81, size: 0x8, addend: 0x0, symName: __ZNSt3__1neB8ne180100IPNS_12basic_stringIcNS_11char_traitsIcEENS_9allocatorIcEEEES7_EEbRKNS_16reverse_iteratorIT_EERKNS8_IT0_EE, symObjAddr: 0xA2BC, symBinAddr: 0x10000B954, symSize: 0x48 }
  - { offset: 0xCFCD, size: 0x8, addend: 0x0, symName: __ZNSt3__112__to_addressB8ne180100INS_16reverse_iteratorIPNS_12basic_stringIcNS_11char_traitsIcEENS_9allocatorIcEEEEEEvEEu7__decayIDTclsr19__to_address_helperIT_EE6__callclsr3stdE7declvalIRKSA_EEEEESC_, symObjAddr: 0xA304, symBinAddr: 0x10000B99C, symSize: 0x24 }
  - { offset: 0xD07F, size: 0x8, addend: 0x0, symName: __ZNSt3__122__make_exception_guardB8ne180100INS_6vectorI10ProductionNS_9allocatorIS2_EEE16__destroy_vectorEEENS_28__exception_guard_exceptionsIT_EES8_, symObjAddr: 0xA64C, symBinAddr: 0x10000BCE4, symSize: 0x40 }
  - { offset: 0xD0B4, size: 0x8, addend: 0x0, symName: __ZNSt3__119__allocate_at_leastB8ne180100INS_9allocatorI10ProductionEEEENS_19__allocation_resultINS_16allocator_traitsIT_E7pointerEEERS6_m, symObjAddr: 0xAA5C, symBinAddr: 0x10000C0F4, symSize: 0x40 }
  - { offset: 0xD0F7, size: 0x8, addend: 0x0, symName: __ZNSt3__130__uninitialized_allocator_copyB8ne180100INS_9allocatorI10ProductionEEPKS2_S5_PS2_EET2_RT_T0_T1_S7_, symObjAddr: 0xACA4, symBinAddr: 0x10000C33C, symSize: 0x80 }
  - { offset: 0xD194, size: 0x8, addend: 0x0, symName: __ZNSt3__114__unwrap_rangeB8ne180100IPK10ProductionS3_EENS_4pairIT0_S5_EET_S7_, symObjAddr: 0xAD9C, symBinAddr: 0x10000C434, symSize: 0x60 }
  - { offset: 0xD1E0, size: 0x8, addend: 0x0, symName: __ZNSt3__135__uninitialized_allocator_copy_implB8ne180100INS_9allocatorI10ProductionEEPKS2_S5_PS2_EET2_RT_T0_T1_S7_, symObjAddr: 0xADFC, symBinAddr: 0x10000C494, symSize: 0xF4 }
  - { offset: 0xD27E, size: 0x8, addend: 0x0, symName: __ZNSt3__113__unwrap_iterB8ne180100IP10ProductionNS_18__unwrap_iter_implIS2_Lb1EEELi0EEEDTclsrT0_8__unwrapclsr3stdE7declvalIT_EEEES6_, symObjAddr: 0xAEF0, symBinAddr: 0x10000C588, symSize: 0x24 }
  - { offset: 0xD2C2, size: 0x8, addend: 0x0, symName: __ZNSt3__113__rewrap_iterB8ne180100IP10ProductionS2_NS_18__unwrap_iter_implIS2_Lb1EEEEET_S5_T0_, symObjAddr: 0xAF14, symBinAddr: 0x10000C5AC, symSize: 0x3C }
  - { offset: 0xD317, size: 0x8, addend: 0x0, symName: __ZNSt3__19make_pairB8ne180100IPK10ProductionS3_EENS_4pairINS_18__unwrap_ref_decayIT_E4typeENS5_IT0_E4typeEEEOS6_OS9_, symObjAddr: 0xAF50, symBinAddr: 0x10000C5E8, symSize: 0x38 }
  - { offset: 0xD366, size: 0x8, addend: 0x0, symName: __ZNSt3__113__unwrap_iterB8ne180100IPK10ProductionNS_18__unwrap_iter_implIS3_Lb1EEELi0EEEDTclsrT0_8__unwrapclsr3stdE7declvalIT_EEEES7_, symObjAddr: 0xAF88, symBinAddr: 0x10000C620, symSize: 0x24 }
  - { offset: 0xD4D1, size: 0x8, addend: 0x0, symName: __ZNSt3__112__to_addressB8ne180100IK10ProductionEEPT_S4_, symObjAddr: 0xB040, symBinAddr: 0x10000C6D8, symSize: 0x14 }
  - { offset: 0xD506, size: 0x8, addend: 0x0, symName: __ZNSt3__122__make_exception_guardB8ne180100INS_29_AllocatorDestroyRangeReverseINS_9allocatorI10ProductionEEPS3_EEEENS_28__exception_guard_exceptionsIT_EES8_, symObjAddr: 0xB054, symBinAddr: 0x10000C6EC, symSize: 0x4C }
  - { offset: 0xD53C, size: 0x8, addend: 0x0, symName: __ZNSt3__112__to_addressB8ne180100I10ProductionEEPT_S3_, symObjAddr: 0xB118, symBinAddr: 0x10000C7B0, symSize: 0x14 }
  - { offset: 0xD571, size: 0x8, addend: 0x0, symName: __ZNSt3__119__allocator_destroyB8ne180100INS_9allocatorI10ProductionEENS_16reverse_iteratorIPS2_EES6_EEvRT_T0_T1_, symObjAddr: 0xB39C, symBinAddr: 0x10000CA34, symSize: 0x70 }
  - { offset: 0xD5D4, size: 0x8, addend: 0x0, symName: __ZNSt3__1neB8ne180100IP10ProductionS2_EEbRKNS_16reverse_iteratorIT_EERKNS3_IT0_EE, symObjAddr: 0xB440, symBinAddr: 0x10000CAD8, symSize: 0x48 }
  - { offset: 0xD620, size: 0x8, addend: 0x0, symName: __ZNSt3__112__to_addressB8ne180100INS_16reverse_iteratorIP10ProductionEEvEEu7__decayIDTclsr19__to_address_helperIT_EE6__callclsr3stdE7declvalIRKS5_EEEEES7_, symObjAddr: 0xB4B4, symBinAddr: 0x10000CB4C, symSize: 0x24 }
  - { offset: 0xD705, size: 0x8, addend: 0x0, symName: __ZNSt3__112__destroy_atB8ne180100INS_4pairIKNS1_INS_12basic_stringIcNS_11char_traitsIcEENS_9allocatorIcEEEES7_EEiEELi0EEEvPT_, symObjAddr: 0xBF74, symBinAddr: 0x10000D60C, symSize: 0x24 }
  - { offset: 0xD773, size: 0x8, addend: 0x0, symName: __ZNSt3__116forward_as_tupleB8ne180100IJNS_4pairINS_12basic_stringIcNS_11char_traitsIcEENS_9allocatorIcEEEES7_EEEEENS_5tupleIJDpOT_EEESC_, symObjAddr: 0xC1AC, symBinAddr: 0x10000D844, symSize: 0x2C }
  - { offset: 0xD7AC, size: 0x8, addend: 0x0, symName: __ZNSt3__116forward_as_tupleB8ne180100IJEEENS_5tupleIJDpOT_EEES4_, symObjAddr: 0xC1D8, symBinAddr: 0x10000D870, symSize: 0x4 }
  - { offset: 0xD7D0, size: 0x8, addend: 0x0, symName: __ZNSt3__1ltB8ne180100INS_12basic_stringIcNS_11char_traitsIcEENS_9allocatorIcEEEES6_S6_S6_EEbRKNS_4pairIT_T0_EERKNS7_IT1_T2_EE, symObjAddr: 0xC7E4, symBinAddr: 0x10000DE7C, symSize: 0x88 }
  - { offset: 0xD831, size: 0x8, addend: 0x0, symName: __ZNSt3__1ltB8ne180100IcNS_11char_traitsIcEENS_9allocatorIcEEEEbRKNS_12basic_stringIT_T0_T1_EESB_, symObjAddr: 0xC86C, symBinAddr: 0x10000DF04, symSize: 0x38 }
  - { offset: 0xD8B2, size: 0x8, addend: 0x0, symName: __ZNSt3__13getB8ne180100ILm0EJONS_4pairINS_12basic_stringIcNS_11char_traitsIcEENS_9allocatorIcEEEES7_EEEEERNS_13tuple_elementIXT_ENS_5tupleIJDpT0_EEEE4typeERSE_, symObjAddr: 0xCF70, symBinAddr: 0x10000E608, symSize: 0x24 }
  - { offset: 0xD8F5, size: 0x8, addend: 0x0, symName: __ZNSt3__127__tree_balance_after_insertB8ne180100IPNS_16__tree_node_baseIPvEEEEvT_S5_, symObjAddr: 0xD224, symBinAddr: 0x10000E8BC, symSize: 0x32C }
  - { offset: 0xD971, size: 0x8, addend: 0x0, symName: __ZNSt3__120__tree_is_left_childB8ne180100IPNS_16__tree_node_baseIPvEEEEbT_, symObjAddr: 0xD590, symBinAddr: 0x10000EC28, symSize: 0x2C }
  - { offset: 0xD9A6, size: 0x8, addend: 0x0, symName: __ZNSt3__118__tree_left_rotateB8ne180100IPNS_16__tree_node_baseIPvEEEEvT_, symObjAddr: 0xD5BC, symBinAddr: 0x10000EC54, symSize: 0xD8 }
  - { offset: 0xD9E5, size: 0x8, addend: 0x0, symName: __ZNSt3__119__tree_right_rotateB8ne180100IPNS_16__tree_node_baseIPvEEEEvT_, symObjAddr: 0xD694, symBinAddr: 0x10000ED2C, symSize: 0xCC }
  - { offset: 0xDA7E, size: 0x8, addend: 0x0, symName: __ZNSt3__120__throw_out_of_rangeB8ne180100EPKc, symObjAddr: 0xDDD0, symBinAddr: 0x10000F468, symSize: 0x64 }
  - { offset: 0xDAA6, size: 0x8, addend: 0x0, symName: __ZNSt3__130__uninitialized_allocator_copyB8ne180100INS_9allocatorINS_12basic_stringIcNS_11char_traitsIcEENS1_IcEEEEEEPS6_S8_S8_EET2_RT_T0_T1_S9_, symObjAddr: 0xE12C, symBinAddr: 0x10000F7C4, symSize: 0x80 }
  - { offset: 0xDB43, size: 0x8, addend: 0x0, symName: __ZNSt3__114__unwrap_rangeB8ne180100IPNS_12basic_stringIcNS_11char_traitsIcEENS_9allocatorIcEEEES7_EENS_4pairIT0_S9_EET_SB_, symObjAddr: 0xE1AC, symBinAddr: 0x10000F844, symSize: 0x60 }
  - { offset: 0xDB8F, size: 0x8, addend: 0x0, symName: __ZNSt3__135__uninitialized_allocator_copy_implB8ne180100INS_9allocatorINS_12basic_stringIcNS_11char_traitsIcEENS1_IcEEEEEEPS6_S8_S8_EET2_RT_T0_T1_S9_, symObjAddr: 0xE20C, symBinAddr: 0x10000F8A4, symSize: 0xF4 }
  - { offset: 0xDC2D, size: 0x8, addend: 0x0, symName: __ZNSt3__19make_pairB8ne180100IPNS_12basic_stringIcNS_11char_traitsIcEENS_9allocatorIcEEEES7_EENS_4pairINS_18__unwrap_ref_decayIT_E4typeENS9_IT0_E4typeEEEOSA_OSD_, symObjAddr: 0xE300, symBinAddr: 0x10000F998, symSize: 0x38 }
  - { offset: 0xDD50, size: 0x8, addend: 0x0, symName: __ZNSt3__13maxB8ne180100ImEERKT_S3_S3_, symObjAddr: 0xF088, symBinAddr: 0x100010720, symSize: 0x2C }
  - { offset: 0xE130, size: 0x8, addend: 0x0, symName: __ZNSt3__14swapB8ne180100IPPNS_12basic_stringIcNS_11char_traitsIcEENS_9allocatorIcEEEEEENS_9enable_ifIXaasr21is_move_constructibleIT_EE5valuesr18is_move_assignableISA_EE5valueEvE4typeERSA_SD_, symObjAddr: 0xF698, symBinAddr: 0x100010D30, symSize: 0x3C }
  - { offset: 0xE181, size: 0x8, addend: 0x0, symName: __ZNSt3__14moveB8ne180100IPPNS_12basic_stringIcNS_11char_traitsIcEENS_9allocatorIcEEEES8_EET0_T_SA_S9_, symObjAddr: 0xF77C, symBinAddr: 0x100010E14, symSize: 0x40 }
  - { offset: 0xE1DB, size: 0x8, addend: 0x0, symName: __ZNSt3__16__moveB8ne180100INS_17_ClassicAlgPolicyEPPNS_12basic_stringIcNS_11char_traitsIcEENS_9allocatorIcEEEES9_S9_EENS_4pairIT0_T2_EESB_T1_SC_, symObjAddr: 0xF884, symBinAddr: 0x100010F1C, symSize: 0x44 }
  - { offset: 0xE247, size: 0x8, addend: 0x0, symName: __ZNSt3__123__dispatch_copy_or_moveB8ne180100INS_17_ClassicAlgPolicyENS_11__move_loopIS1_EENS_14__move_trivialEPPNS_12basic_stringIcNS_11char_traitsIcEENS_9allocatorIcEEEESC_SC_EENS_4pairIT2_T4_EESE_T3_SF_, symObjAddr: 0xF8C8, symBinAddr: 0x100010F60, symSize: 0x44 }
  - { offset: 0xE2C5, size: 0x8, addend: 0x0, symName: __ZNSt3__121__unwrap_and_dispatchB8ne180100INS_10__overloadINS_11__move_loopINS_17_ClassicAlgPolicyEEENS_14__move_trivialEEEPPNS_12basic_stringIcNS_11char_traitsIcEENS_9allocatorIcEEEESE_SE_Li0EEENS_4pairIT0_T2_EESG_T1_SH_, symObjAddr: 0xF90C, symBinAddr: 0x100010FA4, symSize: 0xB4 }
  - { offset: 0xE353, size: 0x8, addend: 0x0, symName: __ZNSt3__114__unwrap_rangeB8ne180100IPPNS_12basic_stringIcNS_11char_traitsIcEENS_9allocatorIcEEEES8_EENS_4pairIT0_SA_EET_SC_, symObjAddr: 0xF9C0, symBinAddr: 0x100011058, symSize: 0x60 }
  - { offset: 0xE517, size: 0x8, addend: 0x0, symName: __ZNSt3__113__unwrap_iterB8ne180100IPPNS_12basic_stringIcNS_11char_traitsIcEENS_9allocatorIcEEEENS_18__unwrap_iter_implIS8_Lb1EEELi0EEEDTclsrT0_8__unwrapclsr3stdE7declvalIT_EEEESC_, symObjAddr: 0xFA68, symBinAddr: 0x100011100, symSize: 0x24 }
  - { offset: 0xE55B, size: 0x8, addend: 0x0, symName: __ZNSt3__19make_pairB8ne180100IPPNS_12basic_stringIcNS_11char_traitsIcEENS_9allocatorIcEEEES8_EENS_4pairINS_18__unwrap_ref_decayIT_E4typeENSA_IT0_E4typeEEEOSB_OSE_, symObjAddr: 0xFA8C, symBinAddr: 0x100011124, symSize: 0x38 }
  - { offset: 0xE5AA, size: 0x8, addend: 0x0, symName: __ZNSt3__114__rewrap_rangeB8ne180100IPPNS_12basic_stringIcNS_11char_traitsIcEENS_9allocatorIcEEEES8_EET_S9_T0_, symObjAddr: 0xFAC4, symBinAddr: 0x10001115C, symSize: 0x2C }
  - { offset: 0xE5F6, size: 0x8, addend: 0x0, symName: __ZNSt3__113__rewrap_iterB8ne180100IPPNS_12basic_stringIcNS_11char_traitsIcEENS_9allocatorIcEEEES8_NS_18__unwrap_iter_implIS8_Lb1EEEEET_SB_T0_, symObjAddr: 0xFAF0, symBinAddr: 0x100011188, symSize: 0x3C }
  - { offset: 0xE64B, size: 0x8, addend: 0x0, symName: __ZNSt3__119__copy_trivial_implB8ne180100IPNS_12basic_stringIcNS_11char_traitsIcEENS_9allocatorIcEEEES7_EENS_4pairIPT_PT0_EESA_SA_SC_, symObjAddr: 0xFB2C, symBinAddr: 0x1000111C4, symSize: 0x80 }
  - { offset: 0xE6B3, size: 0x8, addend: 0x0, symName: __ZNSt3__119__constexpr_memmoveB8ne180100IPNS_12basic_stringIcNS_11char_traitsIcEENS_9allocatorIcEEEES7_Li0EEEPT_S9_PT0_NS_15__element_countE, symObjAddr: 0xFBAC, symBinAddr: 0x100011244, symSize: 0x64 }
  - { offset: 0xE721, size: 0x8, addend: 0x0, symName: __ZNSt3__19make_pairB8ne180100IRPPNS_12basic_stringIcNS_11char_traitsIcEENS_9allocatorIcEEEES8_EENS_4pairINS_18__unwrap_ref_decayIT_E4typeENSB_IT0_E4typeEEEOSC_OSF_, symObjAddr: 0xFC10, symBinAddr: 0x1000112A8, symSize: 0x38 }
  - { offset: 0xE7C3, size: 0x8, addend: 0x0, symName: __ZNSt3__18distanceB8ne180100INS_13move_iteratorIPPNS_12basic_stringIcNS_11char_traitsIcEENS_9allocatorIcEEEEEEEENS_15iterator_traitsIT_E15difference_typeESC_SC_, symObjAddr: 0xFE78, symBinAddr: 0x100011510, symSize: 0x3C }
  - { offset: 0xE806, size: 0x8, addend: 0x0, symName: __ZNSt3__110__distanceB8ne180100INS_13move_iteratorIPPNS_12basic_stringIcNS_11char_traitsIcEENS_9allocatorIcEEEEEEEENS_15iterator_traitsIT_E15difference_typeESC_SC_NS_26random_access_iterator_tagE, symObjAddr: 0x1007C, symBinAddr: 0x100011714, symSize: 0x30 }
  - { offset: 0xE853, size: 0x8, addend: 0x0, symName: __ZNSt3__1miB8ne180100IPPNS_12basic_stringIcNS_11char_traitsIcEENS_9allocatorIcEEEES8_EEDTmicldtfp_4baseEcldtfp0_4baseEERKNS_13move_iteratorIT_EERKNSA_IT0_EE, symObjAddr: 0x100AC, symBinAddr: 0x100011744, symSize: 0x48 }
  - { offset: 0xE8A2, size: 0x8, addend: 0x0, symName: __ZNSt3__113move_backwardB8ne180100IPPNS_12basic_stringIcNS_11char_traitsIcEENS_9allocatorIcEEEES8_EET0_T_SA_S9_, symObjAddr: 0x10154, symBinAddr: 0x1000117EC, symSize: 0x40 }
  - { offset: 0xE8FC, size: 0x8, addend: 0x0, symName: __ZNSt3__115__move_backwardB8ne180100INS_17_ClassicAlgPolicyEPPNS_12basic_stringIcNS_11char_traitsIcEENS_9allocatorIcEEEES9_S9_EENS_4pairIT0_T2_EESB_T1_SC_, symObjAddr: 0x10194, symBinAddr: 0x10001182C, symSize: 0x44 }
  - { offset: 0xE968, size: 0x8, addend: 0x0, symName: __ZNSt3__123__dispatch_copy_or_moveB8ne180100INS_17_ClassicAlgPolicyENS_20__move_backward_loopIS1_EENS_23__move_backward_trivialEPPNS_12basic_stringIcNS_11char_traitsIcEENS_9allocatorIcEEEESC_SC_EENS_4pairIT2_T4_EESE_T3_SF_, symObjAddr: 0x101D8, symBinAddr: 0x100011870, symSize: 0x44 }
  - { offset: 0xE9E6, size: 0x8, addend: 0x0, symName: __ZNSt3__121__unwrap_and_dispatchB8ne180100INS_10__overloadINS_20__move_backward_loopINS_17_ClassicAlgPolicyEEENS_23__move_backward_trivialEEEPPNS_12basic_stringIcNS_11char_traitsIcEENS_9allocatorIcEEEESE_SE_Li0EEENS_4pairIT0_T2_EESG_T1_SH_, symObjAddr: 0x1021C, symBinAddr: 0x1000118B4, symSize: 0xB4 }
  - { offset: 0xEABA, size: 0x8, addend: 0x0, symName: __ZNSt3__128__copy_backward_trivial_implB8ne180100IPNS_12basic_stringIcNS_11char_traitsIcEENS_9allocatorIcEEEES7_EENS_4pairIPT_PT0_EESA_SA_SC_, symObjAddr: 0x10318, symBinAddr: 0x1000119B0, symSize: 0x90 }
  - { offset: 0xEB22, size: 0x8, addend: 0x0, symName: __ZNSt3__19make_pairB8ne180100IRPPNS_12basic_stringIcNS_11char_traitsIcEENS_9allocatorIcEEEES9_EENS_4pairINS_18__unwrap_ref_decayIT_E4typeENSB_IT0_E4typeEEEOSC_OSF_, symObjAddr: 0x103A8, symBinAddr: 0x100011A40, symSize: 0x38 }
  - { offset: 0xEB71, size: 0x8, addend: 0x0, symName: __ZNSt3__13maxB8ne180100ImNS_6__lessIvvEEEERKT_S5_S5_T0_, symObjAddr: 0x10450, symBinAddr: 0x100011AE8, symSize: 0x54 }
  - { offset: 0xEBCB, size: 0x8, addend: 0x0, symName: __ZNSt3__119__allocate_at_leastB8ne180100INS_9allocatorIPNS_12basic_stringIcNS_11char_traitsIcEENS1_IcEEEEEEEENS_19__allocation_resultINS_16allocator_traitsIT_E7pointerEEERSB_m, symObjAddr: 0x105B4, symBinAddr: 0x100011C4C, symSize: 0x40 }
  - { offset: 0xFCA0, size: 0x8, addend: 0x0, symName: __ZSt28__throw_bad_array_new_lengthB8ne180100v, symObjAddr: 0x9AE4, symBinAddr: 0x10000B17C, symSize: 0x34 }
  - { offset: 0x100AB, size: 0x8, addend: 0x0, symName: _parsingTable, symObjAddr: 0x92798, symBinAddr: 0x100024018, symSize: 0x0 }
  - { offset: 0x10A46, size: 0x8, addend: 0x0, symName: __ZNSt3__112basic_stringIcNS_11char_traitsIcEENS_9allocatorIcEEEC1B8ne180100ILi0EEEPKc, symObjAddr: 0x0, symBinAddr: 0x100001698, symSize: 0x34 }
  - { offset: 0x10A85, size: 0x8, addend: 0x0, symName: __ZNSt3__16vectorINS_12basic_stringIcNS_11char_traitsIcEENS_9allocatorIcEEEENS4_IS6_EEEC1B8ne180100ESt16initializer_listIS6_E, symObjAddr: 0x34, symBinAddr: 0x1000016CC, symSize: 0x3C }
  - { offset: 0x10AC0, size: 0x8, addend: 0x0, symName: __ZNSt3__16vectorI10ProductionNS_9allocatorIS1_EEEC1B8ne180100ESt16initializer_listIS1_E, symObjAddr: 0x70, symBinAddr: 0x100001708, symSize: 0x3C }
  - { offset: 0x10B00, size: 0x8, addend: 0x0, symName: __ZN10ProductionD1Ev, symObjAddr: 0xAC, symBinAddr: 0x100001744, symSize: 0x2C }
  - { offset: 0x10B2C, size: 0x8, addend: 0x0, symName: __ZNSt3__16vectorI10ProductionNS_9allocatorIS1_EEED1B8ne180100Ev, symObjAddr: 0xD8, symBinAddr: 0x100001770, symSize: 0x2C }
  - { offset: 0x10B56, size: 0x8, addend: 0x0, symName: __ZNSt3__13mapINS_4pairINS_12basic_stringIcNS_11char_traitsIcEENS_9allocatorIcEEEES7_EEiNS_4lessIS8_EENS5_INS1_IKS8_iEEEEEC1B8ne180100Ev, symObjAddr: 0x104, symBinAddr: 0x10000179C, symSize: 0x2C }
  - { offset: 0x10B80, size: 0x8, addend: 0x0, symName: __ZNSt3__13mapINS_4pairINS_12basic_stringIcNS_11char_traitsIcEENS_9allocatorIcEEEES7_EEiNS_4lessIS8_EENS5_INS1_IKS8_iEEEEED1B8ne180100Ev, symObjAddr: 0x130, symBinAddr: 0x1000017C8, symSize: 0x2C }
  - { offset: 0x10BAA, size: 0x8, addend: 0x0, symName: __Z22initializeParsingTablev, symObjAddr: 0x15C, symBinAddr: 0x1000017F4, symSize: 0x5688 }
  - { offset: 0x10BC4, size: 0x8, addend: 0x0, symName: __ZNSt3__13mapINS_4pairINS_12basic_stringIcNS_11char_traitsIcEENS_9allocatorIcEEEES7_EEiNS_4lessIS8_EENS5_INS1_IKS8_iEEEEEixEOS8_, symObjAddr: 0x57E4, symBinAddr: 0x100006E7C, symSize: 0x80 }
  - { offset: 0x10C27, size: 0x8, addend: 0x0, symName: __ZNSt3__14pairINS_12basic_stringIcNS_11char_traitsIcEENS_9allocatorIcEEEES6_EC1B8ne180100IRA10_KcRA6_S9_Li0EEEOT_OT0_, symObjAddr: 0x5864, symBinAddr: 0x100006EFC, symSize: 0x3C }
  - { offset: 0x10C85, size: 0x8, addend: 0x0, symName: __ZNSt3__14pairINS_12basic_stringIcNS_11char_traitsIcEENS_9allocatorIcEEEES6_ED1Ev, symObjAddr: 0x58A0, symBinAddr: 0x100006F38, symSize: 0x2C }
  - { offset: 0x10CDD, size: 0x8, addend: 0x0, symName: __ZNSt3__14pairINS_12basic_stringIcNS_11char_traitsIcEENS_9allocatorIcEEEES6_EC1B8ne180100IRA8_KcRA2_S9_Li0EEEOT_OT0_, symObjAddr: 0x58CC, symBinAddr: 0x100006F64, symSize: 0x3C }
  - { offset: 0x10D3B, size: 0x8, addend: 0x0, symName: __ZNSt3__14pairINS_12basic_stringIcNS_11char_traitsIcEENS_9allocatorIcEEEES6_EC1B8ne180100IRA8_KcRA6_S9_Li0EEEOT_OT0_, symObjAddr: 0x5908, symBinAddr: 0x100006FA0, symSize: 0x3C }
  - { offset: 0x10DAF, size: 0x8, addend: 0x0, symName: __ZNSt3__14pairINS_12basic_stringIcNS_11char_traitsIcEENS_9allocatorIcEEEES6_EC1B8ne180100IRA7_KcRA6_S9_Li0EEEOT_OT0_, symObjAddr: 0x5944, symBinAddr: 0x100006FDC, symSize: 0x3C }
  - { offset: 0x10E23, size: 0x8, addend: 0x0, symName: __ZNSt3__14pairINS_12basic_stringIcNS_11char_traitsIcEENS_9allocatorIcEEEES6_EC1B8ne180100IRA8_KcRA3_S9_Li0EEEOT_OT0_, symObjAddr: 0x5980, symBinAddr: 0x100007018, symSize: 0x3C }
  - { offset: 0x10E81, size: 0x8, addend: 0x0, symName: __ZNSt3__14pairINS_12basic_stringIcNS_11char_traitsIcEENS_9allocatorIcEEEES6_EC1B8ne180100IRA8_KcRA7_S9_Li0EEEOT_OT0_, symObjAddr: 0x59BC, symBinAddr: 0x100007054, symSize: 0x3C }
  - { offset: 0x10EDF, size: 0x8, addend: 0x0, symName: __ZNSt3__14pairINS_12basic_stringIcNS_11char_traitsIcEENS_9allocatorIcEEEES6_EC1B8ne180100IRA7_KcRA2_S9_Li0EEEOT_OT0_, symObjAddr: 0x59F8, symBinAddr: 0x100007090, symSize: 0x3C }
  - { offset: 0x10F3D, size: 0x8, addend: 0x0, symName: __ZNSt3__14pairINS_12basic_stringIcNS_11char_traitsIcEENS_9allocatorIcEEEES6_EC1B8ne180100IRA7_KcRA3_S9_Li0EEEOT_OT0_, symObjAddr: 0x5A34, symBinAddr: 0x1000070CC, symSize: 0x3C }
  - { offset: 0x10F9B, size: 0x8, addend: 0x0, symName: __ZNSt3__14pairINS_12basic_stringIcNS_11char_traitsIcEENS_9allocatorIcEEEES6_EC1B8ne180100IRA7_KcSB_Li0EEEOT_OT0_, symObjAddr: 0x5A70, symBinAddr: 0x100007108, symSize: 0x3C }
  - { offset: 0x10FF9, size: 0x8, addend: 0x0, symName: __ZNSt3__14pairINS_12basic_stringIcNS_11char_traitsIcEENS_9allocatorIcEEEES6_EC1B8ne180100IRA6_KcRA3_S9_Li0EEEOT_OT0_, symObjAddr: 0x5AAC, symBinAddr: 0x100007144, symSize: 0x3C }
  - { offset: 0x1106D, size: 0x8, addend: 0x0, symName: __ZNSt3__14pairINS_12basic_stringIcNS_11char_traitsIcEENS_9allocatorIcEEEES6_EC1B8ne180100IRA7_KcRA4_S9_Li0EEEOT_OT0_, symObjAddr: 0x5AE8, symBinAddr: 0x100007180, symSize: 0x3C }
  - { offset: 0x110E1, size: 0x8, addend: 0x0, symName: __ZNSt3__14pairINS_12basic_stringIcNS_11char_traitsIcEENS_9allocatorIcEEEES6_EC1B8ne180100IRA7_KcRA5_S9_Li0EEEOT_OT0_, symObjAddr: 0x5B24, symBinAddr: 0x1000071BC, symSize: 0x3C }
  - { offset: 0x11155, size: 0x8, addend: 0x0, symName: __ZNSt3__14pairINS_12basic_stringIcNS_11char_traitsIcEENS_9allocatorIcEEEES6_EC1B8ne180100IRA11_KcRA2_S9_Li0EEEOT_OT0_, symObjAddr: 0x5B60, symBinAddr: 0x1000071F8, symSize: 0x3C }
  - { offset: 0x111B3, size: 0x8, addend: 0x0, symName: __ZNSt3__14pairINS_12basic_stringIcNS_11char_traitsIcEENS_9allocatorIcEEEES6_EC1B8ne180100IRA11_KcRA3_S9_Li0EEEOT_OT0_, symObjAddr: 0x5B9C, symBinAddr: 0x100007234, symSize: 0x3C }
  - { offset: 0x11211, size: 0x8, addend: 0x0, symName: __ZNSt3__14pairINS_12basic_stringIcNS_11char_traitsIcEENS_9allocatorIcEEEES6_EC1B8ne180100IRA11_KcRA4_S9_Li0EEEOT_OT0_, symObjAddr: 0x5BD8, symBinAddr: 0x100007270, symSize: 0x3C }
  - { offset: 0x1126F, size: 0x8, addend: 0x0, symName: __ZNSt3__14pairINS_12basic_stringIcNS_11char_traitsIcEENS_9allocatorIcEEEES6_EC1B8ne180100IRA11_KcRA5_S9_Li0EEEOT_OT0_, symObjAddr: 0x5C14, symBinAddr: 0x1000072AC, symSize: 0x3C }
  - { offset: 0x112CD, size: 0x8, addend: 0x0, symName: __ZNSt3__14pairINS_12basic_stringIcNS_11char_traitsIcEENS_9allocatorIcEEEES6_EC1B8ne180100IRA11_KcRA6_S9_Li0EEEOT_OT0_, symObjAddr: 0x5C50, symBinAddr: 0x1000072E8, symSize: 0x3C }
  - { offset: 0x1132B, size: 0x8, addend: 0x0, symName: __ZNSt3__14pairINS_12basic_stringIcNS_11char_traitsIcEENS_9allocatorIcEEEES6_EC1B8ne180100IRA6_KcRA2_S9_Li0EEEOT_OT0_, symObjAddr: 0x5C8C, symBinAddr: 0x100007324, symSize: 0x3C }
  - { offset: 0x11389, size: 0x8, addend: 0x0, symName: __ZNSt3__14pairINS_12basic_stringIcNS_11char_traitsIcEENS_9allocatorIcEEEES6_EC1B8ne180100IRA6_KcRA4_S9_Li0EEEOT_OT0_, symObjAddr: 0x5CC8, symBinAddr: 0x100007360, symSize: 0x3C }
  - { offset: 0x113E7, size: 0x8, addend: 0x0, symName: __ZNSt3__14pairINS_12basic_stringIcNS_11char_traitsIcEENS_9allocatorIcEEEES6_EC1B8ne180100IRA6_KcRA5_S9_Li0EEEOT_OT0_, symObjAddr: 0x5D04, symBinAddr: 0x10000739C, symSize: 0x3C }
  - { offset: 0x11445, size: 0x8, addend: 0x0, symName: __ZNSt3__14pairINS_12basic_stringIcNS_11char_traitsIcEENS_9allocatorIcEEEES6_EC1B8ne180100IRA6_KcSB_Li0EEEOT_OT0_, symObjAddr: 0x5D40, symBinAddr: 0x1000073D8, symSize: 0x3C }
  - { offset: 0x114A3, size: 0x8, addend: 0x0, symName: __ZNSt3__14pairINS_12basic_stringIcNS_11char_traitsIcEENS_9allocatorIcEEEES6_EC1B8ne180100IRA8_KcRA4_S9_Li0EEEOT_OT0_, symObjAddr: 0x5D7C, symBinAddr: 0x100007414, symSize: 0x3C }
  - { offset: 0x11501, size: 0x8, addend: 0x0, symName: __ZNSt3__14pairINS_12basic_stringIcNS_11char_traitsIcEENS_9allocatorIcEEEES6_EC1B8ne180100IRA8_KcRA5_S9_Li0EEEOT_OT0_, symObjAddr: 0x5DB8, symBinAddr: 0x100007450, symSize: 0x3C }
  - { offset: 0x11575, size: 0x8, addend: 0x0, symName: __ZNSt3__14pairINS_12basic_stringIcNS_11char_traitsIcEENS_9allocatorIcEEEES6_EC1B8ne180100IRA9_KcRA2_S9_Li0EEEOT_OT0_, symObjAddr: 0x5DF4, symBinAddr: 0x10000748C, symSize: 0x3C }
  - { offset: 0x115D3, size: 0x8, addend: 0x0, symName: __ZNSt3__14pairINS_12basic_stringIcNS_11char_traitsIcEENS_9allocatorIcEEEES6_EC1B8ne180100IRA9_KcRA3_S9_Li0EEEOT_OT0_, symObjAddr: 0x5E30, symBinAddr: 0x1000074C8, symSize: 0x3C }
  - { offset: 0x11631, size: 0x8, addend: 0x0, symName: __ZNSt3__14pairINS_12basic_stringIcNS_11char_traitsIcEENS_9allocatorIcEEEES6_EC1B8ne180100IRA9_KcRA4_S9_Li0EEEOT_OT0_, symObjAddr: 0x5E6C, symBinAddr: 0x100007504, symSize: 0x3C }
  - { offset: 0x1168F, size: 0x8, addend: 0x0, symName: __ZNSt3__14pairINS_12basic_stringIcNS_11char_traitsIcEENS_9allocatorIcEEEES6_EC1B8ne180100IRA9_KcRA5_S9_Li0EEEOT_OT0_, symObjAddr: 0x5EA8, symBinAddr: 0x100007540, symSize: 0x3C }
  - { offset: 0x116ED, size: 0x8, addend: 0x0, symName: __ZNSt3__14pairINS_12basic_stringIcNS_11char_traitsIcEENS_9allocatorIcEEEES6_EC1B8ne180100IRA9_KcRA6_S9_Li0EEEOT_OT0_, symObjAddr: 0x5EE4, symBinAddr: 0x10000757C, symSize: 0x3C }
  - { offset: 0x1174B, size: 0x8, addend: 0x0, symName: __ZNSt3__14pairINS_12basic_stringIcNS_11char_traitsIcEENS_9allocatorIcEEEES6_EC1B8ne180100IRA9_KcRA7_S9_Li0EEEOT_OT0_, symObjAddr: 0x5F20, symBinAddr: 0x1000075B8, symSize: 0x3C }
  - { offset: 0x117A9, size: 0x8, addend: 0x0, symName: __ZNSt3__14pairINS_12basic_stringIcNS_11char_traitsIcEENS_9allocatorIcEEEES6_EC1B8ne180100IRA10_KcRA2_S9_Li0EEEOT_OT0_, symObjAddr: 0x5F5C, symBinAddr: 0x1000075F4, symSize: 0x3C }
  - { offset: 0x11807, size: 0x8, addend: 0x0, symName: __ZNSt3__14pairINS_12basic_stringIcNS_11char_traitsIcEENS_9allocatorIcEEEES6_EC1B8ne180100IRA10_KcRA3_S9_Li0EEEOT_OT0_, symObjAddr: 0x5F98, symBinAddr: 0x100007630, symSize: 0x3C }
  - { offset: 0x11865, size: 0x8, addend: 0x0, symName: __ZNSt3__14pairINS_12basic_stringIcNS_11char_traitsIcEENS_9allocatorIcEEEES6_EC1B8ne180100IRA10_KcRA7_S9_Li0EEEOT_OT0_, symObjAddr: 0x5FD4, symBinAddr: 0x10000766C, symSize: 0x3C }
  - { offset: 0x118D9, size: 0x8, addend: 0x0, symName: __ZNSt3__14pairINS_12basic_stringIcNS_11char_traitsIcEENS_9allocatorIcEEEES6_EC1B8ne180100IRA12_KcRA3_S9_Li0EEEOT_OT0_, symObjAddr: 0x6010, symBinAddr: 0x1000076A8, symSize: 0x3C }
  - { offset: 0x1194D, size: 0x8, addend: 0x0, symName: __ZNSt3__14pairINS_12basic_stringIcNS_11char_traitsIcEENS_9allocatorIcEEEES6_EC1B8ne180100IRA13_KcRA2_S9_Li0EEEOT_OT0_, symObjAddr: 0x604C, symBinAddr: 0x1000076E4, symSize: 0x3C }
  - { offset: 0x119AB, size: 0x8, addend: 0x0, symName: __ZNSt3__14pairINS_12basic_stringIcNS_11char_traitsIcEENS_9allocatorIcEEEES6_EC1B8ne180100IRA13_KcRA3_S9_Li0EEEOT_OT0_, symObjAddr: 0x6088, symBinAddr: 0x100007720, symSize: 0x3C }
  - { offset: 0x11A09, size: 0x8, addend: 0x0, symName: __Z6parserRNSt3__16vectorI5TokenNS_9allocatorIS1_EEEE, symObjAddr: 0x60C4, symBinAddr: 0x10000775C, symSize: 0x10 }
  - { offset: 0x11A34, size: 0x8, addend: 0x0, symName: _main, symObjAddr: 0x60D4, symBinAddr: 0x10000776C, symSize: 0x2B4 }
  - { offset: 0x11B16, size: 0x8, addend: 0x0, symName: __ZNSt3__15stackINS_12basic_stringIcNS_11char_traitsIcEENS_9allocatorIcEEEENS_5dequeIS6_NS4_IS6_EEEEEC1B8ne180100Ev, symObjAddr: 0x6388, symBinAddr: 0x100007A20, symSize: 0x2C }
  - { offset: 0x11B40, size: 0x8, addend: 0x0, symName: __ZNSt3__16vectorINS_12basic_stringIcNS_11char_traitsIcEENS_9allocatorIcEEEENS4_IS6_EEEC1B8ne180100Ev, symObjAddr: 0x63B4, symBinAddr: 0x100007A4C, symSize: 0x2C }
  - { offset: 0x11B6A, size: 0x8, addend: 0x0, symName: __ZNSt3__14pairINS_12basic_stringIcNS_11char_traitsIcEENS_9allocatorIcEEEES6_EC1B8ne180100IRS6_S9_Li0EEEOT_OT0_, symObjAddr: 0x63E0, symBinAddr: 0x100007A78, symSize: 0x3C }
  - { offset: 0x11BC8, size: 0x8, addend: 0x0, symName: __ZNSt3__16vectorI10ProductionNS_9allocatorIS1_EEE2atEm, symObjAddr: 0x641C, symBinAddr: 0x100007AB4, symSize: 0x68 }
  - { offset: 0x11BFF, size: 0x8, addend: 0x0, symName: __ZNSt3__16vectorINS_12basic_stringIcNS_11char_traitsIcEENS_9allocatorIcEEEENS4_IS6_EEEC1ERKS8_, symObjAddr: 0x6484, symBinAddr: 0x100007B1C, symSize: 0x34 }
  - { offset: 0x11C3A, size: 0x8, addend: 0x0, symName: __ZNKSt3__16vectorINS_12basic_stringIcNS_11char_traitsIcEENS_9allocatorIcEEEENS4_IS6_EEE4sizeB8ne180100Ev, symObjAddr: 0x64B8, symBinAddr: 0x100007B50, symSize: 0x28 }
  - { offset: 0x11C60, size: 0x8, addend: 0x0, symName: __ZNSt3__15stackINS_12basic_stringIcNS_11char_traitsIcEENS_9allocatorIcEEEENS_5dequeIS6_NS4_IS6_EEEEE4pushB8ne180100ERKS6_, symObjAddr: 0x64E0, symBinAddr: 0x100007B78, symSize: 0x2C }
  - { offset: 0x11C94, size: 0x8, addend: 0x0, symName: __ZNSt3__16vectorINS_12basic_stringIcNS_11char_traitsIcEENS_9allocatorIcEEEENS4_IS6_EEEixB8ne180100Em, symObjAddr: 0x650C, symBinAddr: 0x100007BA4, symSize: 0x2C }
  - { offset: 0x11CCB, size: 0x8, addend: 0x0, symName: __ZNSt3__113basic_ostreamIcNS_11char_traitsIcEEElsB8ne180100EPFRS3_S4_E, symObjAddr: 0x6580, symBinAddr: 0x100007C18, symSize: 0x2C }
  - { offset: 0x11CFF, size: 0x8, addend: 0x0, symName: __ZNKSt3__15stackINS_12basic_stringIcNS_11char_traitsIcEENS_9allocatorIcEEEENS_5dequeIS6_NS4_IS6_EEEEE5emptyB8ne180100Ev, symObjAddr: 0x6604, symBinAddr: 0x100007C9C, symSize: 0x28 }
  - { offset: 0x11D25, size: 0x8, addend: 0x0, symName: __ZNSt3__15stackINS_12basic_stringIcNS_11char_traitsIcEENS_9allocatorIcEEEENS_5dequeIS6_NS4_IS6_EEEEE3topB8ne180100Ev, symObjAddr: 0x6678, symBinAddr: 0x100007D10, symSize: 0x24 }
  - { offset: 0x11D4B, size: 0x8, addend: 0x0, symName: __ZNSt3__15stackINS_12basic_stringIcNS_11char_traitsIcEENS_9allocatorIcEEEENS_5dequeIS6_NS4_IS6_EEEEE3popB8ne180100Ev, symObjAddr: 0x669C, symBinAddr: 0x100007D34, symSize: 0x24 }
  - { offset: 0x11D71, size: 0x8, addend: 0x0, symName: __ZNSt3__16vectorINS_12basic_stringIcNS_11char_traitsIcEENS_9allocatorIcEEEENS4_IS6_EEED1B8ne180100Ev, symObjAddr: 0x66C0, symBinAddr: 0x100007D58, symSize: 0x2C }
  - { offset: 0x11D9B, size: 0x8, addend: 0x0, symName: __ZNSt3__15stackINS_12basic_stringIcNS_11char_traitsIcEENS_9allocatorIcEEEENS_5dequeIS6_NS4_IS6_EEEEED1Ev, symObjAddr: 0x66EC, symBinAddr: 0x100007D84, symSize: 0x2C }
  - { offset: 0x11DC7, size: 0x8, addend: 0x0, symName: __ZN10ProductionD2Ev, symObjAddr: 0x6718, symBinAddr: 0x100007DB0, symSize: 0x38 }
  - { offset: 0x11DF3, size: 0x8, addend: 0x0, symName: __ZNSt3__14pairINS_12basic_stringIcNS_11char_traitsIcEENS_9allocatorIcEEEES6_EC2B8ne180100IRA10_KcRA6_S9_Li0EEEOT_OT0_, symObjAddr: 0x6750, symBinAddr: 0x100007DE8, symSize: 0x70 }
  - { offset: 0x11E51, size: 0x8, addend: 0x0, symName: __ZNSt3__14pairINS_12basic_stringIcNS_11char_traitsIcEENS_9allocatorIcEEEES6_ED2Ev, symObjAddr: 0x67C0, symBinAddr: 0x100007E58, symSize: 0x38 }
  - { offset: 0x11E7D, size: 0x8, addend: 0x0, symName: __ZNSt3__14pairINS_12basic_stringIcNS_11char_traitsIcEENS_9allocatorIcEEEES6_EC2B8ne180100IRA8_KcRA2_S9_Li0EEEOT_OT0_, symObjAddr: 0x67F8, symBinAddr: 0x100007E90, symSize: 0x70 }
  - { offset: 0x11EDB, size: 0x8, addend: 0x0, symName: __ZNSt3__14pairINS_12basic_stringIcNS_11char_traitsIcEENS_9allocatorIcEEEES6_EC2B8ne180100IRA8_KcRA6_S9_Li0EEEOT_OT0_, symObjAddr: 0x6868, symBinAddr: 0x100007F00, symSize: 0x70 }
  - { offset: 0x11F39, size: 0x8, addend: 0x0, symName: __ZNSt3__14pairINS_12basic_stringIcNS_11char_traitsIcEENS_9allocatorIcEEEES6_EC2B8ne180100IRA7_KcRA6_S9_Li0EEEOT_OT0_, symObjAddr: 0x68D8, symBinAddr: 0x100007F70, symSize: 0x70 }
  - { offset: 0x11F97, size: 0x8, addend: 0x0, symName: __ZNSt3__14pairINS_12basic_stringIcNS_11char_traitsIcEENS_9allocatorIcEEEES6_EC2B8ne180100IRA8_KcRA3_S9_Li0EEEOT_OT0_, symObjAddr: 0x6948, symBinAddr: 0x100007FE0, symSize: 0x70 }
  - { offset: 0x11FF5, size: 0x8, addend: 0x0, symName: __ZNSt3__14pairINS_12basic_stringIcNS_11char_traitsIcEENS_9allocatorIcEEEES6_EC2B8ne180100IRA8_KcRA7_S9_Li0EEEOT_OT0_, symObjAddr: 0x69B8, symBinAddr: 0x100008050, symSize: 0x70 }
  - { offset: 0x12053, size: 0x8, addend: 0x0, symName: __ZNSt3__14pairINS_12basic_stringIcNS_11char_traitsIcEENS_9allocatorIcEEEES6_EC2B8ne180100IRA7_KcRA2_S9_Li0EEEOT_OT0_, symObjAddr: 0x6A28, symBinAddr: 0x1000080C0, symSize: 0x70 }
  - { offset: 0x120B1, size: 0x8, addend: 0x0, symName: __ZNSt3__14pairINS_12basic_stringIcNS_11char_traitsIcEENS_9allocatorIcEEEES6_EC2B8ne180100IRA7_KcRA3_S9_Li0EEEOT_OT0_, symObjAddr: 0x6A98, symBinAddr: 0x100008130, symSize: 0x70 }
  - { offset: 0x1210F, size: 0x8, addend: 0x0, symName: __ZNSt3__14pairINS_12basic_stringIcNS_11char_traitsIcEENS_9allocatorIcEEEES6_EC2B8ne180100IRA7_KcSB_Li0EEEOT_OT0_, symObjAddr: 0x6B08, symBinAddr: 0x1000081A0, symSize: 0x70 }
  - { offset: 0x1216D, size: 0x8, addend: 0x0, symName: __ZNSt3__14pairINS_12basic_stringIcNS_11char_traitsIcEENS_9allocatorIcEEEES6_EC2B8ne180100IRA6_KcRA3_S9_Li0EEEOT_OT0_, symObjAddr: 0x6B78, symBinAddr: 0x100008210, symSize: 0x70 }
  - { offset: 0x121CB, size: 0x8, addend: 0x0, symName: __ZNSt3__14pairINS_12basic_stringIcNS_11char_traitsIcEENS_9allocatorIcEEEES6_EC2B8ne180100IRA7_KcRA4_S9_Li0EEEOT_OT0_, symObjAddr: 0x6BE8, symBinAddr: 0x100008280, symSize: 0x70 }
  - { offset: 0x12229, size: 0x8, addend: 0x0, symName: __ZNSt3__14pairINS_12basic_stringIcNS_11char_traitsIcEENS_9allocatorIcEEEES6_EC2B8ne180100IRA7_KcRA5_S9_Li0EEEOT_OT0_, symObjAddr: 0x6C58, symBinAddr: 0x1000082F0, symSize: 0x70 }
  - { offset: 0x12287, size: 0x8, addend: 0x0, symName: __ZNSt3__14pairINS_12basic_stringIcNS_11char_traitsIcEENS_9allocatorIcEEEES6_EC2B8ne180100IRA11_KcRA2_S9_Li0EEEOT_OT0_, symObjAddr: 0x6CC8, symBinAddr: 0x100008360, symSize: 0x70 }
  - { offset: 0x122E5, size: 0x8, addend: 0x0, symName: __ZNSt3__14pairINS_12basic_stringIcNS_11char_traitsIcEENS_9allocatorIcEEEES6_EC2B8ne180100IRA11_KcRA3_S9_Li0EEEOT_OT0_, symObjAddr: 0x6D38, symBinAddr: 0x1000083D0, symSize: 0x70 }
  - { offset: 0x12343, size: 0x8, addend: 0x0, symName: __ZNSt3__14pairINS_12basic_stringIcNS_11char_traitsIcEENS_9allocatorIcEEEES6_EC2B8ne180100IRA11_KcRA4_S9_Li0EEEOT_OT0_, symObjAddr: 0x6DA8, symBinAddr: 0x100008440, symSize: 0x70 }
  - { offset: 0x123A1, size: 0x8, addend: 0x0, symName: __ZNSt3__14pairINS_12basic_stringIcNS_11char_traitsIcEENS_9allocatorIcEEEES6_EC2B8ne180100IRA11_KcRA5_S9_Li0EEEOT_OT0_, symObjAddr: 0x6E18, symBinAddr: 0x1000084B0, symSize: 0x70 }
  - { offset: 0x123FF, size: 0x8, addend: 0x0, symName: __ZNSt3__14pairINS_12basic_stringIcNS_11char_traitsIcEENS_9allocatorIcEEEES6_EC2B8ne180100IRA11_KcRA6_S9_Li0EEEOT_OT0_, symObjAddr: 0x6E88, symBinAddr: 0x100008520, symSize: 0x70 }
  - { offset: 0x1245D, size: 0x8, addend: 0x0, symName: __ZNSt3__14pairINS_12basic_stringIcNS_11char_traitsIcEENS_9allocatorIcEEEES6_EC2B8ne180100IRA6_KcRA2_S9_Li0EEEOT_OT0_, symObjAddr: 0x6EF8, symBinAddr: 0x100008590, symSize: 0x70 }
  - { offset: 0x124BB, size: 0x8, addend: 0x0, symName: __ZNSt3__14pairINS_12basic_stringIcNS_11char_traitsIcEENS_9allocatorIcEEEES6_EC2B8ne180100IRA6_KcRA4_S9_Li0EEEOT_OT0_, symObjAddr: 0x6F68, symBinAddr: 0x100008600, symSize: 0x70 }
  - { offset: 0x12519, size: 0x8, addend: 0x0, symName: __ZNSt3__14pairINS_12basic_stringIcNS_11char_traitsIcEENS_9allocatorIcEEEES6_EC2B8ne180100IRA6_KcRA5_S9_Li0EEEOT_OT0_, symObjAddr: 0x6FD8, symBinAddr: 0x100008670, symSize: 0x70 }
  - { offset: 0x12577, size: 0x8, addend: 0x0, symName: __ZNSt3__14pairINS_12basic_stringIcNS_11char_traitsIcEENS_9allocatorIcEEEES6_EC2B8ne180100IRA6_KcSB_Li0EEEOT_OT0_, symObjAddr: 0x7048, symBinAddr: 0x1000086E0, symSize: 0x70 }
  - { offset: 0x125D5, size: 0x8, addend: 0x0, symName: __ZNSt3__14pairINS_12basic_stringIcNS_11char_traitsIcEENS_9allocatorIcEEEES6_EC2B8ne180100IRA8_KcRA4_S9_Li0EEEOT_OT0_, symObjAddr: 0x70B8, symBinAddr: 0x100008750, symSize: 0x70 }
  - { offset: 0x12633, size: 0x8, addend: 0x0, symName: __ZNSt3__14pairINS_12basic_stringIcNS_11char_traitsIcEENS_9allocatorIcEEEES6_EC2B8ne180100IRA8_KcRA5_S9_Li0EEEOT_OT0_, symObjAddr: 0x7128, symBinAddr: 0x1000087C0, symSize: 0x70 }
  - { offset: 0x12691, size: 0x8, addend: 0x0, symName: __ZNSt3__14pairINS_12basic_stringIcNS_11char_traitsIcEENS_9allocatorIcEEEES6_EC2B8ne180100IRA9_KcRA2_S9_Li0EEEOT_OT0_, symObjAddr: 0x7198, symBinAddr: 0x100008830, symSize: 0x70 }
  - { offset: 0x126EF, size: 0x8, addend: 0x0, symName: __ZNSt3__14pairINS_12basic_stringIcNS_11char_traitsIcEENS_9allocatorIcEEEES6_EC2B8ne180100IRA9_KcRA3_S9_Li0EEEOT_OT0_, symObjAddr: 0x7208, symBinAddr: 0x1000088A0, symSize: 0x70 }
  - { offset: 0x1274D, size: 0x8, addend: 0x0, symName: __ZNSt3__14pairINS_12basic_stringIcNS_11char_traitsIcEENS_9allocatorIcEEEES6_EC2B8ne180100IRA9_KcRA4_S9_Li0EEEOT_OT0_, symObjAddr: 0x7278, symBinAddr: 0x100008910, symSize: 0x70 }
  - { offset: 0x127AB, size: 0x8, addend: 0x0, symName: __ZNSt3__14pairINS_12basic_stringIcNS_11char_traitsIcEENS_9allocatorIcEEEES6_EC2B8ne180100IRA9_KcRA5_S9_Li0EEEOT_OT0_, symObjAddr: 0x72E8, symBinAddr: 0x100008980, symSize: 0x70 }
  - { offset: 0x12809, size: 0x8, addend: 0x0, symName: __ZNSt3__14pairINS_12basic_stringIcNS_11char_traitsIcEENS_9allocatorIcEEEES6_EC2B8ne180100IRA9_KcRA6_S9_Li0EEEOT_OT0_, symObjAddr: 0x7358, symBinAddr: 0x1000089F0, symSize: 0x70 }
  - { offset: 0x12867, size: 0x8, addend: 0x0, symName: __ZNSt3__14pairINS_12basic_stringIcNS_11char_traitsIcEENS_9allocatorIcEEEES6_EC2B8ne180100IRA9_KcRA7_S9_Li0EEEOT_OT0_, symObjAddr: 0x73C8, symBinAddr: 0x100008A60, symSize: 0x70 }
  - { offset: 0x128C5, size: 0x8, addend: 0x0, symName: __ZNSt3__14pairINS_12basic_stringIcNS_11char_traitsIcEENS_9allocatorIcEEEES6_EC2B8ne180100IRA10_KcRA2_S9_Li0EEEOT_OT0_, symObjAddr: 0x7438, symBinAddr: 0x100008AD0, symSize: 0x70 }
  - { offset: 0x12923, size: 0x8, addend: 0x0, symName: __ZNSt3__14pairINS_12basic_stringIcNS_11char_traitsIcEENS_9allocatorIcEEEES6_EC2B8ne180100IRA10_KcRA3_S9_Li0EEEOT_OT0_, symObjAddr: 0x74A8, symBinAddr: 0x100008B40, symSize: 0x70 }
  - { offset: 0x12981, size: 0x8, addend: 0x0, symName: __ZNSt3__14pairINS_12basic_stringIcNS_11char_traitsIcEENS_9allocatorIcEEEES6_EC2B8ne180100IRA10_KcRA7_S9_Li0EEEOT_OT0_, symObjAddr: 0x7518, symBinAddr: 0x100008BB0, symSize: 0x70 }
  - { offset: 0x129DF, size: 0x8, addend: 0x0, symName: __ZNSt3__14pairINS_12basic_stringIcNS_11char_traitsIcEENS_9allocatorIcEEEES6_EC2B8ne180100IRA12_KcRA3_S9_Li0EEEOT_OT0_, symObjAddr: 0x7588, symBinAddr: 0x100008C20, symSize: 0x70 }
  - { offset: 0x12A3D, size: 0x8, addend: 0x0, symName: __ZNSt3__14pairINS_12basic_stringIcNS_11char_traitsIcEENS_9allocatorIcEEEES6_EC2B8ne180100IRA13_KcRA2_S9_Li0EEEOT_OT0_, symObjAddr: 0x75F8, symBinAddr: 0x100008C90, symSize: 0x70 }
  - { offset: 0x12A9B, size: 0x8, addend: 0x0, symName: __ZNSt3__14pairINS_12basic_stringIcNS_11char_traitsIcEENS_9allocatorIcEEEES6_EC2B8ne180100IRA13_KcRA3_S9_Li0EEEOT_OT0_, symObjAddr: 0x7668, symBinAddr: 0x100008D00, symSize: 0x70 }
  - { offset: 0x12AF9, size: 0x8, addend: 0x0, symName: __ZNSt3__14pairINS_12basic_stringIcNS_11char_traitsIcEENS_9allocatorIcEEEES6_EC2B8ne180100IRS6_S9_Li0EEEOT_OT0_, symObjAddr: 0x76D8, symBinAddr: 0x100008D70, symSize: 0x70 }
  - { offset: 0x12B57, size: 0x8, addend: 0x0, symName: __ZNSt3__15stackINS_12basic_stringIcNS_11char_traitsIcEENS_9allocatorIcEEEENS_5dequeIS6_NS4_IS6_EEEEED2Ev, symObjAddr: 0x7748, symBinAddr: 0x100008DE0, symSize: 0x2C }
  - { offset: 0x12B83, size: 0x8, addend: 0x0, symName: __ZNSt3__15dequeINS_12basic_stringIcNS_11char_traitsIcEENS_9allocatorIcEEEENS4_IS6_EEED1B8ne180100Ev, symObjAddr: 0x7774, symBinAddr: 0x100008E0C, symSize: 0x2C }
  - { offset: 0x12BAD, size: 0x8, addend: 0x0, symName: __ZNSt3__15dequeINS_12basic_stringIcNS_11char_traitsIcEENS_9allocatorIcEEEENS4_IS6_EEED2B8ne180100Ev, symObjAddr: 0x77A0, symBinAddr: 0x100008E38, symSize: 0xA4 }
  - { offset: 0x12C03, size: 0x8, addend: 0x0, symName: __ZNSt3__15dequeINS_12basic_stringIcNS_11char_traitsIcEENS_9allocatorIcEEEENS4_IS6_EEE5clearEv, symObjAddr: 0x7844, symBinAddr: 0x100008EDC, symSize: 0x194 }
  - { offset: 0x12C5E, size: 0x8, addend: 0x0, symName: __ZNKSt3__15dequeINS_12basic_stringIcNS_11char_traitsIcEENS_9allocatorIcEEEENS4_IS6_EEE17__annotate_deleteB8ne180100Ev, symObjAddr: 0x79D8, symBinAddr: 0x100009070, symSize: 0x10 }
  - { offset: 0x12C84, size: 0x8, addend: 0x0, symName: __ZNSt3__114__split_bufferIPNS_12basic_stringIcNS_11char_traitsIcEENS_9allocatorIcEEEENS4_IS7_EEE5beginB8ne180100Ev, symObjAddr: 0x79E8, symBinAddr: 0x100009080, symSize: 0x18 }
  - { offset: 0x12CAA, size: 0x8, addend: 0x0, symName: __ZNSt3__114__split_bufferIPNS_12basic_stringIcNS_11char_traitsIcEENS_9allocatorIcEEEENS4_IS7_EEE3endB8ne180100Ev, symObjAddr: 0x7A00, symBinAddr: 0x100009098, symSize: 0x18 }
  - { offset: 0x12CD0, size: 0x8, addend: 0x0, symName: __ZNSt3__116allocator_traitsINS_9allocatorINS_12basic_stringIcNS_11char_traitsIcEENS1_IcEEEEEEE10deallocateB8ne180100ERS7_PS6_m, symObjAddr: 0x7A18, symBinAddr: 0x1000090B0, symSize: 0x34 }
  - { offset: 0x12D12, size: 0x8, addend: 0x0, symName: __ZNSt3__15dequeINS_12basic_stringIcNS_11char_traitsIcEENS_9allocatorIcEEEENS4_IS6_EEE7__allocB8ne180100Ev, symObjAddr: 0x7A4C, symBinAddr: 0x1000090E4, symSize: 0x28 }
  - { offset: 0x12D38, size: 0x8, addend: 0x0, symName: __ZNSt3__114__split_bufferIPNS_12basic_stringIcNS_11char_traitsIcEENS_9allocatorIcEEEENS4_IS7_EEED1Ev, symObjAddr: 0x7A74, symBinAddr: 0x10000910C, symSize: 0x2C }
  - { offset: 0x12D64, size: 0x8, addend: 0x0, symName: __ZNSt3__15dequeINS_12basic_stringIcNS_11char_traitsIcEENS_9allocatorIcEEEENS4_IS6_EEE5beginB8ne180100Ev, symObjAddr: 0x7AA0, symBinAddr: 0x100009138, symSize: 0xC0 }
  - { offset: 0x12D99, size: 0x8, addend: 0x0, symName: __ZNSt3__15dequeINS_12basic_stringIcNS_11char_traitsIcEENS_9allocatorIcEEEENS4_IS6_EEE3endB8ne180100Ev, symObjAddr: 0x7B60, symBinAddr: 0x1000091F8, symSize: 0xC4 }
  - { offset: 0x12DDD, size: 0x8, addend: 0x0, symName: __ZNSt3__116allocator_traitsINS_9allocatorINS_12basic_stringIcNS_11char_traitsIcEENS1_IcEEEEEEE7destroyB8ne180100IS6_vEEvRS7_PT_, symObjAddr: 0x7C68, symBinAddr: 0x100009300, symSize: 0x2C }
  - { offset: 0x12E1A, size: 0x8, addend: 0x0, symName: __ZNKSt3__116__deque_iteratorINS_12basic_stringIcNS_11char_traitsIcEENS_9allocatorIcEEEEPS6_RS6_PS7_lLl170EEdeB8ne180100Ev, symObjAddr: 0x7C94, symBinAddr: 0x10000932C, symSize: 0x18 }
  - { offset: 0x12E40, size: 0x8, addend: 0x0, symName: __ZNSt3__116__deque_iteratorINS_12basic_stringIcNS_11char_traitsIcEENS_9allocatorIcEEEEPS6_RS6_PS7_lLl170EEppB8ne180100Ev, symObjAddr: 0x7CAC, symBinAddr: 0x100009344, symSize: 0x70 }
  - { offset: 0x12E66, size: 0x8, addend: 0x0, symName: __ZNSt3__15dequeINS_12basic_stringIcNS_11char_traitsIcEENS_9allocatorIcEEEENS4_IS6_EEE6__sizeB8ne180100Ev, symObjAddr: 0x7D1C, symBinAddr: 0x1000093B4, symSize: 0x28 }
  - { offset: 0x12E8C, size: 0x8, addend: 0x0, symName: __ZNKSt3__114__split_bufferIPNS_12basic_stringIcNS_11char_traitsIcEENS_9allocatorIcEEEENS4_IS7_EEE4sizeB8ne180100Ev, symObjAddr: 0x7D44, symBinAddr: 0x1000093DC, symSize: 0x28 }
  - { offset: 0x12EB2, size: 0x8, addend: 0x0, symName: __ZNSt3__114__split_bufferIPNS_12basic_stringIcNS_11char_traitsIcEENS_9allocatorIcEEEENS4_IS7_EEE5frontB8ne180100Ev, symObjAddr: 0x7D6C, symBinAddr: 0x100009404, symSize: 0x18 }
  - { offset: 0x12ED8, size: 0x8, addend: 0x0, symName: __ZNSt3__114__split_bufferIPNS_12basic_stringIcNS_11char_traitsIcEENS_9allocatorIcEEEENS4_IS7_EEE9pop_frontB8ne180100Ev, symObjAddr: 0x7D84, symBinAddr: 0x10000941C, symSize: 0x2C }
  - { offset: 0x12EFE, size: 0x8, addend: 0x0, symName: __ZNKSt3__15dequeINS_12basic_stringIcNS_11char_traitsIcEENS_9allocatorIcEEEENS4_IS6_EEE14__annotate_newB8ne180100Em, symObjAddr: 0x7DB0, symBinAddr: 0x100009448, symSize: 0x14 }
  - { offset: 0x12F33, size: 0x8, addend: 0x0, symName: __ZNKSt3__114__split_bufferIPNS_12basic_stringIcNS_11char_traitsIcEENS_9allocatorIcEEEENS4_IS7_EEE5emptyB8ne180100Ev, symObjAddr: 0x7DC4, symBinAddr: 0x10000945C, symSize: 0x28 }
  - { offset: 0x12F59, size: 0x8, addend: 0x0, symName: __ZNSt3__116__deque_iteratorINS_12basic_stringIcNS_11char_traitsIcEENS_9allocatorIcEEEEPS6_RS6_PS7_lLl170EEC1B8ne180100ES9_S7_, symObjAddr: 0x7DEC, symBinAddr: 0x100009484, symSize: 0x3C }
  - { offset: 0x12FA1, size: 0x8, addend: 0x0, symName: __ZNSt3__116__deque_iteratorINS_12basic_stringIcNS_11char_traitsIcEENS_9allocatorIcEEEEPS6_RS6_PS7_lLl170EEC2B8ne180100ES9_S7_, symObjAddr: 0x7E28, symBinAddr: 0x1000094C0, symSize: 0x2C }
  - { offset: 0x12FE9, size: 0x8, addend: 0x0, symName: __ZNKSt3__15dequeINS_12basic_stringIcNS_11char_traitsIcEENS_9allocatorIcEEEENS4_IS6_EEE4sizeB8ne180100Ev, symObjAddr: 0x7E54, symBinAddr: 0x1000094EC, symSize: 0x28 }
  - { offset: 0x1300F, size: 0x8, addend: 0x0, symName: __ZNKSt3__15dequeINS_12basic_stringIcNS_11char_traitsIcEENS_9allocatorIcEEEENS4_IS6_EEE6__sizeB8ne180100Ev, symObjAddr: 0x7E7C, symBinAddr: 0x100009514, symSize: 0x28 }
  - { offset: 0x13035, size: 0x8, addend: 0x0, symName: __ZNKSt3__117__compressed_pairImNS_9allocatorINS_12basic_stringIcNS_11char_traitsIcEENS1_IcEEEEEEE5firstB8ne180100Ev, symObjAddr: 0x7EA4, symBinAddr: 0x10000953C, symSize: 0x24 }
  - { offset: 0x1305B, size: 0x8, addend: 0x0, symName: __ZNKSt3__122__compressed_pair_elemImLi0ELb0EE5__getB8ne180100Ev, symObjAddr: 0x7EC8, symBinAddr: 0x100009560, symSize: 0x14 }
  - { offset: 0x13081, size: 0x8, addend: 0x0, symName: __ZNSt3__19allocatorINS_12basic_stringIcNS_11char_traitsIcEENS0_IcEEEEE7destroyB8ne180100EPS5_, symObjAddr: 0x7F0C, symBinAddr: 0x1000095A4, symSize: 0x28 }
  - { offset: 0x130B5, size: 0x8, addend: 0x0, symName: __ZNSt3__117__compressed_pairImNS_9allocatorINS_12basic_stringIcNS_11char_traitsIcEENS1_IcEEEEEEE5firstB8ne180100Ev, symObjAddr: 0x7F34, symBinAddr: 0x1000095CC, symSize: 0x24 }
  - { offset: 0x130DB, size: 0x8, addend: 0x0, symName: __ZNSt3__122__compressed_pair_elemImLi0ELb0EE5__getB8ne180100Ev, symObjAddr: 0x7F58, symBinAddr: 0x1000095F0, symSize: 0x14 }
  - { offset: 0x13101, size: 0x8, addend: 0x0, symName: __ZNSt3__114__split_bufferIPNS_12basic_stringIcNS_11char_traitsIcEENS_9allocatorIcEEEENS4_IS7_EEE19__destruct_at_beginB8ne180100EPS7_, symObjAddr: 0x7F6C, symBinAddr: 0x100009604, symSize: 0x2C }
  - { offset: 0x13135, size: 0x8, addend: 0x0, symName: __ZNSt3__114__split_bufferIPNS_12basic_stringIcNS_11char_traitsIcEENS_9allocatorIcEEEENS4_IS7_EEE19__destruct_at_beginEPS7_NS_17integral_constantIbLb1EEE, symObjAddr: 0x7F98, symBinAddr: 0x100009630, symSize: 0x20 }
  - { offset: 0x13175, size: 0x8, addend: 0x0, symName: __ZNSt3__19allocatorINS_12basic_stringIcNS_11char_traitsIcEENS0_IcEEEEE10deallocateB8ne180100EPS5_m, symObjAddr: 0x7FB8, symBinAddr: 0x100009650, symSize: 0x44 }
  - { offset: 0x131B7, size: 0x8, addend: 0x0, symName: __ZNSt3__117__compressed_pairImNS_9allocatorINS_12basic_stringIcNS_11char_traitsIcEENS1_IcEEEEEEE6secondB8ne180100Ev, symObjAddr: 0x8078, symBinAddr: 0x100009710, symSize: 0x24 }
  - { offset: 0x131DD, size: 0x8, addend: 0x0, symName: __ZNSt3__122__compressed_pair_elemINS_9allocatorINS_12basic_stringIcNS_11char_traitsIcEENS1_IcEEEEEELi1ELb1EE5__getB8ne180100Ev, symObjAddr: 0x809C, symBinAddr: 0x100009734, symSize: 0x14 }
  - { offset: 0x13203, size: 0x8, addend: 0x0, symName: __ZNSt3__114__split_bufferIPNS_12basic_stringIcNS_11char_traitsIcEENS_9allocatorIcEEEENS4_IS7_EEED2Ev, symObjAddr: 0x80B0, symBinAddr: 0x100009748, symSize: 0x8C }
  - { offset: 0x1322F, size: 0x8, addend: 0x0, symName: __ZNSt3__114__split_bufferIPNS_12basic_stringIcNS_11char_traitsIcEENS_9allocatorIcEEEENS4_IS7_EEE5clearB8ne180100Ev, symObjAddr: 0x813C, symBinAddr: 0x1000097D4, symSize: 0x28 }
  - { offset: 0x13255, size: 0x8, addend: 0x0, symName: __ZNSt3__116allocator_traitsINS_9allocatorIPNS_12basic_stringIcNS_11char_traitsIcEENS1_IcEEEEEEE10deallocateB8ne180100ERS8_PS7_m, symObjAddr: 0x8164, symBinAddr: 0x1000097FC, symSize: 0x34 }
  - { offset: 0x13297, size: 0x8, addend: 0x0, symName: __ZNSt3__114__split_bufferIPNS_12basic_stringIcNS_11char_traitsIcEENS_9allocatorIcEEEENS4_IS7_EEE7__allocB8ne180100Ev, symObjAddr: 0x8198, symBinAddr: 0x100009830, symSize: 0x28 }
  - { offset: 0x132BD, size: 0x8, addend: 0x0, symName: __ZNKSt3__114__split_bufferIPNS_12basic_stringIcNS_11char_traitsIcEENS_9allocatorIcEEEENS4_IS7_EEE8capacityB8ne180100Ev, symObjAddr: 0x81C0, symBinAddr: 0x100009858, symSize: 0x40 }
  - { offset: 0x132E3, size: 0x8, addend: 0x0, symName: __ZNSt3__114__split_bufferIPNS_12basic_stringIcNS_11char_traitsIcEENS_9allocatorIcEEEENS4_IS7_EEE17__destruct_at_endB8ne180100EPS7_, symObjAddr: 0x8200, symBinAddr: 0x100009898, symSize: 0x2C }
  - { offset: 0x13317, size: 0x8, addend: 0x0, symName: __ZNSt3__114__split_bufferIPNS_12basic_stringIcNS_11char_traitsIcEENS_9allocatorIcEEEENS4_IS7_EEE17__destruct_at_endB8ne180100EPS7_NS_17integral_constantIbLb0EEE, symObjAddr: 0x822C, symBinAddr: 0x1000098C4, symSize: 0x80 }
  - { offset: 0x13357, size: 0x8, addend: 0x0, symName: __ZNSt3__116allocator_traitsINS_9allocatorIPNS_12basic_stringIcNS_11char_traitsIcEENS1_IcEEEEEEE7destroyB8ne180100IS7_vEEvRS8_PT_, symObjAddr: 0x82AC, symBinAddr: 0x100009944, symSize: 0x2C }
  - { offset: 0x13394, size: 0x8, addend: 0x0, symName: __ZNSt3__19allocatorIPNS_12basic_stringIcNS_11char_traitsIcEENS0_IcEEEEE7destroyB8ne180100EPS6_, symObjAddr: 0x82EC, symBinAddr: 0x100009984, symSize: 0x14 }
  - { offset: 0x133C8, size: 0x8, addend: 0x0, symName: __ZNSt3__19allocatorIPNS_12basic_stringIcNS_11char_traitsIcEENS0_IcEEEEE10deallocateB8ne180100EPS6_m, symObjAddr: 0x8300, symBinAddr: 0x100009998, symSize: 0x40 }
  - { offset: 0x1340A, size: 0x8, addend: 0x0, symName: __ZNSt3__117__compressed_pairIPPNS_12basic_stringIcNS_11char_traitsIcEENS_9allocatorIcEEEENS4_IS7_EEE6secondB8ne180100Ev, symObjAddr: 0x8340, symBinAddr: 0x1000099D8, symSize: 0x24 }
  - { offset: 0x13430, size: 0x8, addend: 0x0, symName: __ZNSt3__122__compressed_pair_elemINS_9allocatorIPNS_12basic_stringIcNS_11char_traitsIcEENS1_IcEEEEEELi1ELb1EE5__getB8ne180100Ev, symObjAddr: 0x8364, symBinAddr: 0x1000099FC, symSize: 0x14 }
  - { offset: 0x13456, size: 0x8, addend: 0x0, symName: __ZNKSt3__114__split_bufferIPNS_12basic_stringIcNS_11char_traitsIcEENS_9allocatorIcEEEENS4_IS7_EEE9__end_capB8ne180100Ev, symObjAddr: 0x8378, symBinAddr: 0x100009A10, symSize: 0x28 }
  - { offset: 0x1347C, size: 0x8, addend: 0x0, symName: __ZNKSt3__117__compressed_pairIPPNS_12basic_stringIcNS_11char_traitsIcEENS_9allocatorIcEEEENS4_IS7_EEE5firstB8ne180100Ev, symObjAddr: 0x83A0, symBinAddr: 0x100009A38, symSize: 0x24 }
  - { offset: 0x134A2, size: 0x8, addend: 0x0, symName: __ZNKSt3__122__compressed_pair_elemIPPNS_12basic_stringIcNS_11char_traitsIcEENS_9allocatorIcEEEELi0ELb0EE5__getB8ne180100Ev, symObjAddr: 0x83C4, symBinAddr: 0x100009A5C, symSize: 0x14 }
  - { offset: 0x134C8, size: 0x8, addend: 0x0, symName: __ZNSt3__112basic_stringIcNS_11char_traitsIcEENS_9allocatorIcEEEC2B8ne180100ILi0EEEPKc, symObjAddr: 0x83D8, symBinAddr: 0x100009A70, symSize: 0x58 }
  - { offset: 0x1350C, size: 0x8, addend: 0x0, symName: __ZNSt3__117__compressed_pairINS_12basic_stringIcNS_11char_traitsIcEENS_9allocatorIcEEE5__repES5_EC1B8ne180100INS_18__default_init_tagESA_EEOT_OT0_, symObjAddr: 0x8430, symBinAddr: 0x100009AC8, symSize: 0x3C }
  - { offset: 0x13564, size: 0x8, addend: 0x0, symName: __ZNSt3__111char_traitsIcE6lengthB8ne180100EPKc, symObjAddr: 0x846C, symBinAddr: 0x100009B04, symSize: 0x34 }
  - { offset: 0x13587, size: 0x8, addend: 0x0, symName: __ZNSt3__117__compressed_pairINS_12basic_stringIcNS_11char_traitsIcEENS_9allocatorIcEEE5__repES5_EC2B8ne180100INS_18__default_init_tagESA_EEOT_OT0_, symObjAddr: 0x84A0, symBinAddr: 0x100009B38, symSize: 0x3C }
  - { offset: 0x135DF, size: 0x8, addend: 0x0, symName: __ZNSt3__122__compressed_pair_elemINS_12basic_stringIcNS_11char_traitsIcEENS_9allocatorIcEEE5__repELi0ELb0EEC2B8ne180100ENS_18__default_init_tagE, symObjAddr: 0x84DC, symBinAddr: 0x100009B74, symSize: 0x14 }
  - { offset: 0x13613, size: 0x8, addend: 0x0, symName: __ZNSt3__122__compressed_pair_elemINS_9allocatorIcEELi1ELb1EEC2B8ne180100ENS_18__default_init_tagE, symObjAddr: 0x84F0, symBinAddr: 0x100009B88, symSize: 0x2C }
  - { offset: 0x13647, size: 0x8, addend: 0x0, symName: __ZNSt3__19allocatorIcEC2B8ne180100Ev, symObjAddr: 0x851C, symBinAddr: 0x100009BB4, symSize: 0x2C }
  - { offset: 0x13671, size: 0x8, addend: 0x0, symName: __ZNSt3__116__non_trivial_ifILb1ENS_9allocatorIcEEEC2B8ne180100Ev, symObjAddr: 0x8548, symBinAddr: 0x100009BE0, symSize: 0x14 }
  - { offset: 0x1369B, size: 0x8, addend: 0x0, symName: __ZNKSt3__112basic_stringIcNS_11char_traitsIcEENS_9allocatorIcEEE4dataB8ne180100Ev, symObjAddr: 0x876C, symBinAddr: 0x100009E04, symSize: 0x28 }
  - { offset: 0x136C1, size: 0x8, addend: 0x0, symName: __ZNKSt3__112basic_stringIcNS_11char_traitsIcEENS_9allocatorIcEEE4sizeB8ne180100Ev, symObjAddr: 0x8794, symBinAddr: 0x100009E2C, symSize: 0x54 }
  - { offset: 0x13705, size: 0x8, addend: 0x0, symName: __ZNKSt3__113basic_ostreamIcNS_11char_traitsIcEEE6sentrycvbB8ne180100Ev, symObjAddr: 0x87E8, symBinAddr: 0x100009E80, symSize: 0x1C }
  - { offset: 0x1372B, size: 0x8, addend: 0x0, symName: __ZNSt3__119ostreambuf_iteratorIcNS_11char_traitsIcEEEC1B8ne180100ERNS_13basic_ostreamIcS2_EE, symObjAddr: 0x8A44, symBinAddr: 0x10000A0DC, symSize: 0x34 }
  - { offset: 0x13763, size: 0x8, addend: 0x0, symName: __ZNKSt3__18ios_base5flagsB8ne180100Ev, symObjAddr: 0x8A78, symBinAddr: 0x10000A110, symSize: 0x18 }
  - { offset: 0x1378B, size: 0x8, addend: 0x0, symName: __ZNKSt3__19basic_iosIcNS_11char_traitsIcEEE4fillB8ne180100Ev, symObjAddr: 0x8A90, symBinAddr: 0x10000A128, symSize: 0x64 }
  - { offset: 0x137B3, size: 0x8, addend: 0x0, symName: __ZNKSt3__119ostreambuf_iteratorIcNS_11char_traitsIcEEE6failedB8ne180100Ev, symObjAddr: 0x8AF4, symBinAddr: 0x10000A18C, symSize: 0x24 }
  - { offset: 0x137D9, size: 0x8, addend: 0x0, symName: __ZNSt3__19basic_iosIcNS_11char_traitsIcEEE8setstateB8ne180100Ej, symObjAddr: 0x8B18, symBinAddr: 0x10000A1B0, symSize: 0x2C }
  - { offset: 0x1380E, size: 0x8, addend: 0x0, symName: __ZNKSt3__18ios_base5widthB8ne180100Ev, symObjAddr: 0x8B44, symBinAddr: 0x10000A1DC, symSize: 0x18 }
  - { offset: 0x13836, size: 0x8, addend: 0x0, symName: __ZNSt3__115basic_streambufIcNS_11char_traitsIcEEE5sputnB8ne180100EPKcl, symObjAddr: 0x8B5C, symBinAddr: 0x10000A1F4, symSize: 0x3C }
  - { offset: 0x13878, size: 0x8, addend: 0x0, symName: __ZNSt3__112basic_stringIcNS_11char_traitsIcEENS_9allocatorIcEEEC1B8ne180100Emc, symObjAddr: 0x8B98, symBinAddr: 0x10000A230, symSize: 0x3C }
  - { offset: 0x138C0, size: 0x8, addend: 0x0, symName: __ZNSt3__18ios_base5widthB8ne180100El, symObjAddr: 0x8BD4, symBinAddr: 0x10000A26C, symSize: 0x2C }
  - { offset: 0x13906, size: 0x8, addend: 0x0, symName: __ZNSt3__112basic_stringIcNS_11char_traitsIcEENS_9allocatorIcEEEC2B8ne180100Emc, symObjAddr: 0x8C00, symBinAddr: 0x10000A298, symSize: 0x4C }
  - { offset: 0x1394E, size: 0x8, addend: 0x0, symName: __ZNSt3__119ostreambuf_iteratorIcNS_11char_traitsIcEEEC2B8ne180100ERNS_13basic_ostreamIcS2_EE, symObjAddr: 0x8C4C, symBinAddr: 0x10000A2E4, symSize: 0x54 }
  - { offset: 0x13986, size: 0x8, addend: 0x0, symName: __ZNKSt3__19basic_iosIcNS_11char_traitsIcEEE5rdbufB8ne180100Ev, symObjAddr: 0x8CA0, symBinAddr: 0x10000A338, symSize: 0x24 }
  - { offset: 0x139AE, size: 0x8, addend: 0x0, symName: __ZNKSt3__18ios_base5rdbufB8ne180100Ev, symObjAddr: 0x8CC4, symBinAddr: 0x10000A35C, symSize: 0x18 }
  - { offset: 0x139D4, size: 0x8, addend: 0x0, symName: __ZNSt3__111char_traitsIcE11eq_int_typeB8ne180100Eii, symObjAddr: 0x8CDC, symBinAddr: 0x10000A374, symSize: 0x28 }
  - { offset: 0x13A07, size: 0x8, addend: 0x0, symName: __ZNSt3__111char_traitsIcE3eofB8ne180100Ev, symObjAddr: 0x8D04, symBinAddr: 0x10000A39C, symSize: 0x8 }
  - { offset: 0x13A1B, size: 0x8, addend: 0x0, symName: __ZNKSt3__19basic_iosIcNS_11char_traitsIcEEE5widenB8ne180100Ec, symObjAddr: 0x8D0C, symBinAddr: 0x10000A3A4, symSize: 0x84 }
  - { offset: 0x13A8F, size: 0x8, addend: 0x0, symName: __ZNKSt3__15ctypeIcE5widenB8ne180100Ec, symObjAddr: 0x8DBC, symBinAddr: 0x10000A454, symSize: 0x38 }
  - { offset: 0x13AC4, size: 0x8, addend: 0x0, symName: __ZNSt3__18ios_base8setstateB8ne180100Ej, symObjAddr: 0x8DF4, symBinAddr: 0x10000A48C, symSize: 0x34 }
  - { offset: 0x13AFB, size: 0x8, addend: 0x0, symName: __ZNKSt3__112basic_stringIcNS_11char_traitsIcEENS_9allocatorIcEEE13__get_pointerB8ne180100Ev, symObjAddr: 0x8E3C, symBinAddr: 0x10000A4D4, symSize: 0x54 }
  - { offset: 0x13B21, size: 0x8, addend: 0x0, symName: __ZNKSt3__112basic_stringIcNS_11char_traitsIcEENS_9allocatorIcEEE9__is_longB8ne180100Ev, symObjAddr: 0x8E90, symBinAddr: 0x10000A528, symSize: 0x38 }
  - { offset: 0x13B47, size: 0x8, addend: 0x0, symName: __ZNKSt3__112basic_stringIcNS_11char_traitsIcEENS_9allocatorIcEEE18__get_long_pointerB8ne180100Ev, symObjAddr: 0x8EC8, symBinAddr: 0x10000A560, symSize: 0x28 }
  - { offset: 0x13B6D, size: 0x8, addend: 0x0, symName: __ZNKSt3__112basic_stringIcNS_11char_traitsIcEENS_9allocatorIcEEE19__get_short_pointerB8ne180100Ev, symObjAddr: 0x8EF0, symBinAddr: 0x10000A588, symSize: 0x28 }
  - { offset: 0x13B93, size: 0x8, addend: 0x0, symName: __ZNKSt3__117__compressed_pairINS_12basic_stringIcNS_11char_traitsIcEENS_9allocatorIcEEE5__repES5_E5firstB8ne180100Ev, symObjAddr: 0x8F18, symBinAddr: 0x10000A5B0, symSize: 0x24 }
  - { offset: 0x13BB9, size: 0x8, addend: 0x0, symName: __ZNKSt3__122__compressed_pair_elemINS_12basic_stringIcNS_11char_traitsIcEENS_9allocatorIcEEE5__repELi0ELb0EE5__getB8ne180100Ev, symObjAddr: 0x8F3C, symBinAddr: 0x10000A5D4, symSize: 0x14 }
  - { offset: 0x13BDF, size: 0x8, addend: 0x0, symName: __ZNSt3__114pointer_traitsIPKcE10pointer_toB8ne180100ERS1_, symObjAddr: 0x8F50, symBinAddr: 0x10000A5E8, symSize: 0x14 }
  - { offset: 0x13C02, size: 0x8, addend: 0x0, symName: __ZNKSt3__112basic_stringIcNS_11char_traitsIcEENS_9allocatorIcEEE15__get_long_sizeB8ne180100Ev, symObjAddr: 0x8F64, symBinAddr: 0x10000A5FC, symSize: 0x28 }
  - { offset: 0x13C28, size: 0x8, addend: 0x0, symName: __ZNKSt3__112basic_stringIcNS_11char_traitsIcEENS_9allocatorIcEEE16__get_short_sizeB8ne180100Ev, symObjAddr: 0x8F8C, symBinAddr: 0x10000A624, symSize: 0x34 }
  - { offset: 0x13C4E, size: 0x8, addend: 0x0, symName: __ZNSt3__16vectorINS_12basic_stringIcNS_11char_traitsIcEENS_9allocatorIcEEEENS4_IS6_EEED2B8ne180100Ev, symObjAddr: 0x8FC0, symBinAddr: 0x10000A658, symSize: 0x44 }
  - { offset: 0x13C78, size: 0x8, addend: 0x0, symName: __ZNSt3__16vectorINS_12basic_stringIcNS_11char_traitsIcEENS_9allocatorIcEEEENS4_IS6_EEE16__destroy_vectorC1B8ne180100ERS8_, symObjAddr: 0x9004, symBinAddr: 0x10000A69C, symSize: 0x34 }
  - { offset: 0x13CB1, size: 0x8, addend: 0x0, symName: __ZNSt3__16vectorINS_12basic_stringIcNS_11char_traitsIcEENS_9allocatorIcEEEENS4_IS6_EEE16__destroy_vectorclB8ne180100Ev, symObjAddr: 0x9038, symBinAddr: 0x10000A6D0, symSize: 0x90 }
  - { offset: 0x13CD7, size: 0x8, addend: 0x0, symName: __ZNSt3__16vectorINS_12basic_stringIcNS_11char_traitsIcEENS_9allocatorIcEEEENS4_IS6_EEE16__destroy_vectorC2B8ne180100ERS8_, symObjAddr: 0x90C8, symBinAddr: 0x10000A760, symSize: 0x20 }
  - { offset: 0x13D10, size: 0x8, addend: 0x0, symName: __ZNSt3__16vectorINS_12basic_stringIcNS_11char_traitsIcEENS_9allocatorIcEEEENS4_IS6_EEE7__clearB8ne180100Ev, symObjAddr: 0x90E8, symBinAddr: 0x10000A780, symSize: 0x28 }
  - { offset: 0x13D36, size: 0x8, addend: 0x0, symName: __ZNKSt3__16vectorINS_12basic_stringIcNS_11char_traitsIcEENS_9allocatorIcEEEENS4_IS6_EEE17__annotate_deleteB8ne180100Ev, symObjAddr: 0x9110, symBinAddr: 0x10000A7A8, symSize: 0x10 }
  - { offset: 0x13D5C, size: 0x8, addend: 0x0, symName: __ZNSt3__16vectorINS_12basic_stringIcNS_11char_traitsIcEENS_9allocatorIcEEEENS4_IS6_EEE7__allocB8ne180100Ev, symObjAddr: 0x9120, symBinAddr: 0x10000A7B8, symSize: 0x28 }
  - { offset: 0x13D82, size: 0x8, addend: 0x0, symName: __ZNKSt3__16vectorINS_12basic_stringIcNS_11char_traitsIcEENS_9allocatorIcEEEENS4_IS6_EEE8capacityB8ne180100Ev, symObjAddr: 0x9148, symBinAddr: 0x10000A7E0, symSize: 0x40 }
  - { offset: 0x13DA8, size: 0x8, addend: 0x0, symName: __ZNSt3__16vectorINS_12basic_stringIcNS_11char_traitsIcEENS_9allocatorIcEEEENS4_IS6_EEE22__base_destruct_at_endB8ne180100EPS6_, symObjAddr: 0x9188, symBinAddr: 0x10000A820, symSize: 0x8C }
  - { offset: 0x13DEC, size: 0x8, addend: 0x0, symName: __ZNSt3__117__compressed_pairIPNS_12basic_stringIcNS_11char_traitsIcEENS_9allocatorIcEEEENS4_IS6_EEE6secondB8ne180100Ev, symObjAddr: 0x9228, symBinAddr: 0x10000A8C0, symSize: 0x24 }
  - { offset: 0x13E12, size: 0x8, addend: 0x0, symName: __ZNKSt3__16vectorINS_12basic_stringIcNS_11char_traitsIcEENS_9allocatorIcEEEENS4_IS6_EEE9__end_capB8ne180100Ev, symObjAddr: 0x924C, symBinAddr: 0x10000A8E4, symSize: 0x28 }
  - { offset: 0x13E38, size: 0x8, addend: 0x0, symName: __ZNKSt3__117__compressed_pairIPNS_12basic_stringIcNS_11char_traitsIcEENS_9allocatorIcEEEENS4_IS6_EEE5firstB8ne180100Ev, symObjAddr: 0x9274, symBinAddr: 0x10000A90C, symSize: 0x24 }
  - { offset: 0x13E5E, size: 0x8, addend: 0x0, symName: __ZNKSt3__122__compressed_pair_elemIPNS_12basic_stringIcNS_11char_traitsIcEENS_9allocatorIcEEEELi0ELb0EE5__getB8ne180100Ev, symObjAddr: 0x9298, symBinAddr: 0x10000A930, symSize: 0x14 }
  - { offset: 0x13E84, size: 0x8, addend: 0x0, symName: __ZNSt3__16vectorINS_12basic_stringIcNS_11char_traitsIcEENS_9allocatorIcEEEENS4_IS6_EEEC2B8ne180100ESt16initializer_listIS6_E, symObjAddr: 0x92AC, symBinAddr: 0x10000A944, symSize: 0x120 }
  - { offset: 0x13ED9, size: 0x8, addend: 0x0, symName: __ZNSt3__117__compressed_pairIPNS_12basic_stringIcNS_11char_traitsIcEENS_9allocatorIcEEEENS4_IS6_EEEC1B8ne180100IDnNS_18__default_init_tagEEEOT_OT0_, symObjAddr: 0x93CC, symBinAddr: 0x10000AA64, symSize: 0x3C }
  - { offset: 0x13F31, size: 0x8, addend: 0x0, symName: __ZNKSt16initializer_listINSt3__112basic_stringIcNS0_11char_traitsIcEENS0_9allocatorIcEEEEE4sizeB8ne180100Ev, symObjAddr: 0x9448, symBinAddr: 0x10000AAE0, symSize: 0x18 }
  - { offset: 0x13F57, size: 0x8, addend: 0x0, symName: __ZNSt3__16vectorINS_12basic_stringIcNS_11char_traitsIcEENS_9allocatorIcEEEENS4_IS6_EEE11__vallocateB8ne180100Em, symObjAddr: 0x9460, symBinAddr: 0x10000AAF8, symSize: 0xB4 }
  - { offset: 0x13F9B, size: 0x8, addend: 0x0, symName: __ZNSt3__16vectorINS_12basic_stringIcNS_11char_traitsIcEENS_9allocatorIcEEEENS4_IS6_EEE18__construct_at_endIPKS6_SB_EEvT_T0_m, symObjAddr: 0x9514, symBinAddr: 0x10000ABAC, symSize: 0x8C }
  - { offset: 0x14011, size: 0x8, addend: 0x0, symName: __ZNKSt16initializer_listINSt3__112basic_stringIcNS0_11char_traitsIcEENS0_9allocatorIcEEEEE5beginB8ne180100Ev, symObjAddr: 0x95A0, symBinAddr: 0x10000AC38, symSize: 0x18 }
  - { offset: 0x14037, size: 0x8, addend: 0x0, symName: __ZNKSt16initializer_listINSt3__112basic_stringIcNS0_11char_traitsIcEENS0_9allocatorIcEEEEE3endB8ne180100Ev, symObjAddr: 0x95B8, symBinAddr: 0x10000AC50, symSize: 0x28 }
  - { offset: 0x1405D, size: 0x8, addend: 0x0, symName: __ZNSt3__128__exception_guard_exceptionsINS_6vectorINS_12basic_stringIcNS_11char_traitsIcEENS_9allocatorIcEEEENS5_IS7_EEE16__destroy_vectorEE10__completeB8ne180100Ev, symObjAddr: 0x95E0, symBinAddr: 0x10000AC78, symSize: 0x1C }
  - { offset: 0x14083, size: 0x8, addend: 0x0, symName: __ZNSt3__128__exception_guard_exceptionsINS_6vectorINS_12basic_stringIcNS_11char_traitsIcEENS_9allocatorIcEEEENS5_IS7_EEE16__destroy_vectorEED1B8ne180100Ev, symObjAddr: 0x95FC, symBinAddr: 0x10000AC94, symSize: 0x2C }
  - { offset: 0x140AD, size: 0x8, addend: 0x0, symName: __ZNSt3__117__compressed_pairIPNS_12basic_stringIcNS_11char_traitsIcEENS_9allocatorIcEEEENS4_IS6_EEEC2B8ne180100IDnNS_18__default_init_tagEEEOT_OT0_, symObjAddr: 0x9628, symBinAddr: 0x10000ACC0, symSize: 0x40 }
  - { offset: 0x14105, size: 0x8, addend: 0x0, symName: __ZNSt3__122__compressed_pair_elemIPNS_12basic_stringIcNS_11char_traitsIcEENS_9allocatorIcEEEELi0ELb0EEC2B8ne180100IDnvEEOT_, symObjAddr: 0x9668, symBinAddr: 0x10000AD00, symSize: 0x1C }
  - { offset: 0x14147, size: 0x8, addend: 0x0, symName: __ZNSt3__122__compressed_pair_elemINS_9allocatorINS_12basic_stringIcNS_11char_traitsIcEENS1_IcEEEEEELi1ELb1EEC2B8ne180100ENS_18__default_init_tagE, symObjAddr: 0x9684, symBinAddr: 0x10000AD1C, symSize: 0x2C }
  - { offset: 0x1417B, size: 0x8, addend: 0x0, symName: __ZNSt3__19allocatorINS_12basic_stringIcNS_11char_traitsIcEENS0_IcEEEEEC2B8ne180100Ev, symObjAddr: 0x96B0, symBinAddr: 0x10000AD48, symSize: 0x2C }
  - { offset: 0x141A5, size: 0x8, addend: 0x0, symName: __ZNSt3__116__non_trivial_ifILb1ENS_9allocatorINS_12basic_stringIcNS_11char_traitsIcEENS1_IcEEEEEEEC2B8ne180100Ev, symObjAddr: 0x96DC, symBinAddr: 0x10000AD74, symSize: 0x14 }
  - { offset: 0x141CF, size: 0x8, addend: 0x0, symName: __ZNSt3__128__exception_guard_exceptionsINS_6vectorINS_12basic_stringIcNS_11char_traitsIcEENS_9allocatorIcEEEENS5_IS7_EEE16__destroy_vectorEEC1B8ne180100ESA_, symObjAddr: 0x96F0, symBinAddr: 0x10000AD88, symSize: 0x34 }
  - { offset: 0x14207, size: 0x8, addend: 0x0, symName: __ZNSt3__128__exception_guard_exceptionsINS_6vectorINS_12basic_stringIcNS_11char_traitsIcEENS_9allocatorIcEEEENS5_IS7_EEE16__destroy_vectorEEC2B8ne180100ESA_, symObjAddr: 0x9724, symBinAddr: 0x10000ADBC, symSize: 0x24 }
  - { offset: 0x1423F, size: 0x8, addend: 0x0, symName: __ZNKSt3__16vectorINS_12basic_stringIcNS_11char_traitsIcEENS_9allocatorIcEEEENS4_IS6_EEE8max_sizeEv, symObjAddr: 0x9748, symBinAddr: 0x10000ADE0, symSize: 0x60 }
  - { offset: 0x14267, size: 0x8, addend: 0x0, symName: __ZNKSt3__16vectorINS_12basic_stringIcNS_11char_traitsIcEENS_9allocatorIcEEEENS4_IS6_EEE20__throw_length_errorB8ne180100Ev, symObjAddr: 0x97A8, symBinAddr: 0x10000AE40, symSize: 0x1C }
  - { offset: 0x1428D, size: 0x8, addend: 0x0, symName: __ZNSt3__16vectorINS_12basic_stringIcNS_11char_traitsIcEENS_9allocatorIcEEEENS4_IS6_EEE9__end_capB8ne180100Ev, symObjAddr: 0x9804, symBinAddr: 0x10000AE9C, symSize: 0x28 }
  - { offset: 0x142B3, size: 0x8, addend: 0x0, symName: __ZNKSt3__16vectorINS_12basic_stringIcNS_11char_traitsIcEENS_9allocatorIcEEEENS4_IS6_EEE14__annotate_newB8ne180100Em, symObjAddr: 0x982C, symBinAddr: 0x10000AEC4, symSize: 0x14 }
  - { offset: 0x142F2, size: 0x8, addend: 0x0, symName: __ZNSt3__116allocator_traitsINS_9allocatorINS_12basic_stringIcNS_11char_traitsIcEENS1_IcEEEEEEE8max_sizeB8ne180100IS7_vEEmRKS7_, symObjAddr: 0x986C, symBinAddr: 0x10000AF04, symSize: 0x24 }
  - { offset: 0x14320, size: 0x8, addend: 0x0, symName: __ZNKSt3__16vectorINS_12basic_stringIcNS_11char_traitsIcEENS_9allocatorIcEEEENS4_IS6_EEE7__allocB8ne180100Ev, symObjAddr: 0x9890, symBinAddr: 0x10000AF28, symSize: 0x28 }
  - { offset: 0x14346, size: 0x8, addend: 0x0, symName: __ZNSt3__114numeric_limitsIlE3maxB8ne180100Ev, symObjAddr: 0x98B8, symBinAddr: 0x10000AF50, symSize: 0x14 }
  - { offset: 0x14364, size: 0x8, addend: 0x0, symName: __ZNKSt3__16__lessIvvEclB8ne180100ImmEEbRKT_RKT0_, symObjAddr: 0x9920, symBinAddr: 0x10000AFB8, symSize: 0x34 }
  - { offset: 0x143B8, size: 0x8, addend: 0x0, symName: __ZNKSt3__19allocatorINS_12basic_stringIcNS_11char_traitsIcEENS0_IcEEEEE8max_sizeB8ne180100Ev, symObjAddr: 0x9954, symBinAddr: 0x10000AFEC, symSize: 0x18 }
  - { offset: 0x143DE, size: 0x8, addend: 0x0, symName: __ZNKSt3__117__compressed_pairIPNS_12basic_stringIcNS_11char_traitsIcEENS_9allocatorIcEEEENS4_IS6_EEE6secondB8ne180100Ev, symObjAddr: 0x996C, symBinAddr: 0x10000B004, symSize: 0x24 }
  - { offset: 0x14404, size: 0x8, addend: 0x0, symName: __ZNKSt3__122__compressed_pair_elemINS_9allocatorINS_12basic_stringIcNS_11char_traitsIcEENS1_IcEEEEEELi1ELb1EE5__getB8ne180100Ev, symObjAddr: 0x9990, symBinAddr: 0x10000B028, symSize: 0x14 }
  - { offset: 0x1442A, size: 0x8, addend: 0x0, symName: __ZNSt3__123__libcpp_numeric_limitsIlLb1EE3maxB8ne180100Ev, symObjAddr: 0x99A4, symBinAddr: 0x10000B03C, symSize: 0x8 }
  - { offset: 0x1443E, size: 0x8, addend: 0x0, symName: __ZNSt12length_errorC1B8ne180100EPKc, symObjAddr: 0x9A10, symBinAddr: 0x10000B0A8, symSize: 0x34 }
  - { offset: 0x14476, size: 0x8, addend: 0x0, symName: __ZNSt12length_errorC2B8ne180100EPKc, symObjAddr: 0x9A44, symBinAddr: 0x10000B0DC, symSize: 0x44 }
  - { offset: 0x144AE, size: 0x8, addend: 0x0, symName: __ZNSt3__19allocatorINS_12basic_stringIcNS_11char_traitsIcEENS0_IcEEEEE8allocateB8ne180100Em, symObjAddr: 0x9A88, symBinAddr: 0x10000B120, symSize: 0x5C }
  - { offset: 0x144E2, size: 0x8, addend: 0x0, symName: __ZNSt3__117__compressed_pairIPNS_12basic_stringIcNS_11char_traitsIcEENS_9allocatorIcEEEENS4_IS6_EEE5firstB8ne180100Ev, symObjAddr: 0x9B64, symBinAddr: 0x10000B1FC, symSize: 0x24 }
  - { offset: 0x14508, size: 0x8, addend: 0x0, symName: __ZNSt3__122__compressed_pair_elemIPNS_12basic_stringIcNS_11char_traitsIcEENS_9allocatorIcEEEELi0ELb0EE5__getB8ne180100Ev, symObjAddr: 0x9B88, symBinAddr: 0x10000B220, symSize: 0x14 }
  - { offset: 0x14547, size: 0x8, addend: 0x0, symName: __ZNSt3__16vectorINS_12basic_stringIcNS_11char_traitsIcEENS_9allocatorIcEEEENS4_IS6_EEE21_ConstructTransactionC1B8ne180100ERS8_m, symObjAddr: 0x9B9C, symBinAddr: 0x10000B234, symSize: 0x3C }
  - { offset: 0x1458F, size: 0x8, addend: 0x0, symName: __ZNSt3__16vectorINS_12basic_stringIcNS_11char_traitsIcEENS_9allocatorIcEEEENS4_IS6_EEE21_ConstructTransactionD1B8ne180100Ev, symObjAddr: 0x9C58, symBinAddr: 0x10000B2F0, symSize: 0x2C }
  - { offset: 0x145B9, size: 0x8, addend: 0x0, symName: __ZNSt3__16vectorINS_12basic_stringIcNS_11char_traitsIcEENS_9allocatorIcEEEENS4_IS6_EEE21_ConstructTransactionC2B8ne180100ERS8_m, symObjAddr: 0x9C84, symBinAddr: 0x10000B31C, symSize: 0x4C }
  - { offset: 0x1461F, size: 0x8, addend: 0x0, symName: __ZNSt3__14pairIPKNS_12basic_stringIcNS_11char_traitsIcEENS_9allocatorIcEEEES8_EC1B8ne180100IS8_S8_Li0EEEOT_OT0_, symObjAddr: 0x9EE0, symBinAddr: 0x10000B578, symSize: 0x3C }
  - { offset: 0x1467D, size: 0x8, addend: 0x0, symName: __ZNSt3__14pairIPKNS_12basic_stringIcNS_11char_traitsIcEENS_9allocatorIcEEEES8_EC2B8ne180100IS8_S8_Li0EEEOT_OT0_, symObjAddr: 0x9F1C, symBinAddr: 0x10000B5B4, symSize: 0x34 }
  - { offset: 0x146DB, size: 0x8, addend: 0x0, symName: __ZNSt3__118__unwrap_iter_implIPKNS_12basic_stringIcNS_11char_traitsIcEENS_9allocatorIcEEEELb1EE8__unwrapB8ne180100ES8_, symObjAddr: 0x9F50, symBinAddr: 0x10000B5E8, symSize: 0x24 }
  - { offset: 0x146FE, size: 0x8, addend: 0x0, symName: __ZNSt3__129_AllocatorDestroyRangeReverseINS_9allocatorINS_12basic_stringIcNS_11char_traitsIcEENS1_IcEEEEEEPS6_EC1B8ne180100ERS7_RS8_SB_, symObjAddr: 0x9FD4, symBinAddr: 0x10000B66C, symSize: 0x44 }
  - { offset: 0x14755, size: 0x8, addend: 0x0, symName: __ZNSt3__116allocator_traitsINS_9allocatorINS_12basic_stringIcNS_11char_traitsIcEENS1_IcEEEEEEE9constructB8ne180100IS6_JRKS6_EvEEvRS7_PT_DpOT0_, symObjAddr: 0xA018, symBinAddr: 0x10000B6B0, symSize: 0x34 }
  - { offset: 0x147AC, size: 0x8, addend: 0x0, symName: __ZNSt3__128__exception_guard_exceptionsINS_29_AllocatorDestroyRangeReverseINS_9allocatorINS_12basic_stringIcNS_11char_traitsIcEENS2_IcEEEEEEPS7_EEE10__completeB8ne180100Ev, symObjAddr: 0xA04C, symBinAddr: 0x10000B6E4, symSize: 0x1C }
  - { offset: 0x147D2, size: 0x8, addend: 0x0, symName: __ZNSt3__128__exception_guard_exceptionsINS_29_AllocatorDestroyRangeReverseINS_9allocatorINS_12basic_stringIcNS_11char_traitsIcEENS2_IcEEEEEEPS7_EEED1B8ne180100Ev, symObjAddr: 0xA068, symBinAddr: 0x10000B700, symSize: 0x2C }
  - { offset: 0x147FC, size: 0x8, addend: 0x0, symName: __ZNSt3__128__exception_guard_exceptionsINS_29_AllocatorDestroyRangeReverseINS_9allocatorINS_12basic_stringIcNS_11char_traitsIcEENS2_IcEEEEEEPS7_EEEC1B8ne180100ESA_, symObjAddr: 0xA094, symBinAddr: 0x10000B72C, symSize: 0x34 }
  - { offset: 0x14835, size: 0x8, addend: 0x0, symName: __ZNSt3__128__exception_guard_exceptionsINS_29_AllocatorDestroyRangeReverseINS_9allocatorINS_12basic_stringIcNS_11char_traitsIcEENS2_IcEEEEEEPS7_EEEC2B8ne180100ESA_, symObjAddr: 0xA0C8, symBinAddr: 0x10000B760, symSize: 0x30 }
  - { offset: 0x1486E, size: 0x8, addend: 0x0, symName: __ZNSt3__129_AllocatorDestroyRangeReverseINS_9allocatorINS_12basic_stringIcNS_11char_traitsIcEENS1_IcEEEEEEPS6_EC2B8ne180100ERS7_RS8_SB_, symObjAddr: 0xA0F8, symBinAddr: 0x10000B790, symSize: 0x38 }
  - { offset: 0x148C5, size: 0x8, addend: 0x0, symName: __ZNSt3__19allocatorINS_12basic_stringIcNS_11char_traitsIcEENS0_IcEEEEE9constructB8ne180100IS5_JRKS5_EEEvPT_DpOT0_, symObjAddr: 0xA130, symBinAddr: 0x10000B7C8, symSize: 0x30 }
  - { offset: 0x1491B, size: 0x8, addend: 0x0, symName: __ZNSt3__128__exception_guard_exceptionsINS_29_AllocatorDestroyRangeReverseINS_9allocatorINS_12basic_stringIcNS_11char_traitsIcEENS2_IcEEEEEEPS7_EEED2B8ne180100Ev, symObjAddr: 0xA160, symBinAddr: 0x10000B7F8, symSize: 0x50 }
  - { offset: 0x14945, size: 0x8, addend: 0x0, symName: __ZNKSt3__129_AllocatorDestroyRangeReverseINS_9allocatorINS_12basic_stringIcNS_11char_traitsIcEENS1_IcEEEEEEPS6_EclB8ne180100Ev, symObjAddr: 0xA1B0, symBinAddr: 0x10000B848, symSize: 0x68 }
  - { offset: 0x1496B, size: 0x8, addend: 0x0, symName: __ZNSt3__116reverse_iteratorIPNS_12basic_stringIcNS_11char_traitsIcEENS_9allocatorIcEEEEEC1B8ne180100ES7_, symObjAddr: 0xA288, symBinAddr: 0x10000B920, symSize: 0x34 }
  - { offset: 0x149A3, size: 0x8, addend: 0x0, symName: __ZNSt3__116reverse_iteratorIPNS_12basic_stringIcNS_11char_traitsIcEENS_9allocatorIcEEEEEppB8ne180100Ev, symObjAddr: 0xA328, symBinAddr: 0x10000B9C0, symSize: 0x20 }
  - { offset: 0x149C9, size: 0x8, addend: 0x0, symName: __ZNKSt3__116reverse_iteratorIPNS_12basic_stringIcNS_11char_traitsIcEENS_9allocatorIcEEEEE4baseB8ne180100Ev, symObjAddr: 0xA348, symBinAddr: 0x10000B9E0, symSize: 0x18 }
  - { offset: 0x149F4, size: 0x8, addend: 0x0, symName: __ZNSt3__119__to_address_helperINS_16reverse_iteratorIPNS_12basic_stringIcNS_11char_traitsIcEENS_9allocatorIcEEEEEEvE6__callB8ne180100ERKS9_, symObjAddr: 0xA360, symBinAddr: 0x10000B9F8, symSize: 0x38 }
  - { offset: 0x14A17, size: 0x8, addend: 0x0, symName: __ZNKSt3__116reverse_iteratorIPNS_12basic_stringIcNS_11char_traitsIcEENS_9allocatorIcEEEEEptB8ne180100Ev, symObjAddr: 0xA398, symBinAddr: 0x10000BA30, symSize: 0x24 }
  - { offset: 0x14A3D, size: 0x8, addend: 0x0, symName: __ZNKSt3__116reverse_iteratorIPNS_12basic_stringIcNS_11char_traitsIcEENS_9allocatorIcEEEEEdeB8ne180100Ev, symObjAddr: 0xA3BC, symBinAddr: 0x10000BA54, symSize: 0x28 }
  - { offset: 0x14A71, size: 0x8, addend: 0x0, symName: __ZNSt3__116reverse_iteratorIPNS_12basic_stringIcNS_11char_traitsIcEENS_9allocatorIcEEEEEC2B8ne180100ES7_, symObjAddr: 0xA3E4, symBinAddr: 0x10000BA7C, symSize: 0x28 }
  - { offset: 0x14AA9, size: 0x8, addend: 0x0, symName: __ZNSt3__118__unwrap_iter_implIPNS_12basic_stringIcNS_11char_traitsIcEENS_9allocatorIcEEEELb1EE8__unwrapB8ne180100ES7_, symObjAddr: 0xA40C, symBinAddr: 0x10000BAA4, symSize: 0x24 }
  - { offset: 0x14ACC, size: 0x8, addend: 0x0, symName: __ZNSt3__118__unwrap_iter_implIPNS_12basic_stringIcNS_11char_traitsIcEENS_9allocatorIcEEEELb1EE8__rewrapB8ne180100ES7_S7_, symObjAddr: 0xA430, symBinAddr: 0x10000BAC8, symSize: 0x58 }
  - { offset: 0x14AFD, size: 0x8, addend: 0x0, symName: __ZNSt3__16vectorINS_12basic_stringIcNS_11char_traitsIcEENS_9allocatorIcEEEENS4_IS6_EEE21_ConstructTransactionD2B8ne180100Ev, symObjAddr: 0xA488, symBinAddr: 0x10000BB20, symSize: 0x20 }
  - { offset: 0x14B27, size: 0x8, addend: 0x0, symName: __ZNSt3__128__exception_guard_exceptionsINS_6vectorINS_12basic_stringIcNS_11char_traitsIcEENS_9allocatorIcEEEENS5_IS7_EEE16__destroy_vectorEED2B8ne180100Ev, symObjAddr: 0xA4A8, symBinAddr: 0x10000BB40, symSize: 0x48 }
  - { offset: 0x14B51, size: 0x8, addend: 0x0, symName: __ZNSt3__16vectorI10ProductionNS_9allocatorIS1_EEEC2B8ne180100ESt16initializer_listIS1_E, symObjAddr: 0xA4F0, symBinAddr: 0x10000BB88, symSize: 0x120 }
  - { offset: 0x14BA1, size: 0x8, addend: 0x0, symName: __ZNSt3__117__compressed_pairIP10ProductionNS_9allocatorIS1_EEEC1B8ne180100IDnNS_18__default_init_tagEEEOT_OT0_, symObjAddr: 0xA610, symBinAddr: 0x10000BCA8, symSize: 0x3C }
  - { offset: 0x14BF9, size: 0x8, addend: 0x0, symName: __ZNSt3__16vectorI10ProductionNS_9allocatorIS1_EEE16__destroy_vectorC1B8ne180100ERS4_, symObjAddr: 0xA68C, symBinAddr: 0x10000BD24, symSize: 0x34 }
  - { offset: 0x14C32, size: 0x8, addend: 0x0, symName: __ZNKSt16initializer_listI10ProductionE4sizeB8ne180100Ev, symObjAddr: 0xA6C0, symBinAddr: 0x10000BD58, symSize: 0x18 }
  - { offset: 0x14C58, size: 0x8, addend: 0x0, symName: __ZNSt3__16vectorI10ProductionNS_9allocatorIS1_EEE11__vallocateB8ne180100Em, symObjAddr: 0xA6D8, symBinAddr: 0x10000BD70, symSize: 0xB4 }
  - { offset: 0x14C9C, size: 0x8, addend: 0x0, symName: __ZNSt3__16vectorI10ProductionNS_9allocatorIS1_EEE18__construct_at_endIPKS1_S7_EEvT_T0_m, symObjAddr: 0xA78C, symBinAddr: 0x10000BE24, symSize: 0x8C }
  - { offset: 0x14D12, size: 0x8, addend: 0x0, symName: __ZNKSt16initializer_listI10ProductionE5beginB8ne180100Ev, symObjAddr: 0xA818, symBinAddr: 0x10000BEB0, symSize: 0x18 }
  - { offset: 0x14D38, size: 0x8, addend: 0x0, symName: __ZNKSt16initializer_listI10ProductionE3endB8ne180100Ev, symObjAddr: 0xA830, symBinAddr: 0x10000BEC8, symSize: 0x28 }
  - { offset: 0x14D5E, size: 0x8, addend: 0x0, symName: __ZNSt3__128__exception_guard_exceptionsINS_6vectorI10ProductionNS_9allocatorIS2_EEE16__destroy_vectorEE10__completeB8ne180100Ev, symObjAddr: 0xA858, symBinAddr: 0x10000BEF0, symSize: 0x1C }
  - { offset: 0x14D84, size: 0x8, addend: 0x0, symName: __ZNSt3__128__exception_guard_exceptionsINS_6vectorI10ProductionNS_9allocatorIS2_EEE16__destroy_vectorEED1B8ne180100Ev, symObjAddr: 0xA874, symBinAddr: 0x10000BF0C, symSize: 0x2C }
  - { offset: 0x14DAE, size: 0x8, addend: 0x0, symName: __ZNSt3__117__compressed_pairIP10ProductionNS_9allocatorIS1_EEEC2B8ne180100IDnNS_18__default_init_tagEEEOT_OT0_, symObjAddr: 0xA8A0, symBinAddr: 0x10000BF38, symSize: 0x40 }
  - { offset: 0x14E06, size: 0x8, addend: 0x0, symName: __ZNSt3__122__compressed_pair_elemIP10ProductionLi0ELb0EEC2B8ne180100IDnvEEOT_, symObjAddr: 0xA8E0, symBinAddr: 0x10000BF78, symSize: 0x1C }
  - { offset: 0x14E48, size: 0x8, addend: 0x0, symName: __ZNSt3__122__compressed_pair_elemINS_9allocatorI10ProductionEELi1ELb1EEC2B8ne180100ENS_18__default_init_tagE, symObjAddr: 0xA8FC, symBinAddr: 0x10000BF94, symSize: 0x2C }
  - { offset: 0x14E7C, size: 0x8, addend: 0x0, symName: __ZNSt3__19allocatorI10ProductionEC2B8ne180100Ev, symObjAddr: 0xA928, symBinAddr: 0x10000BFC0, symSize: 0x2C }
  - { offset: 0x14EA6, size: 0x8, addend: 0x0, symName: __ZNSt3__116__non_trivial_ifILb1ENS_9allocatorI10ProductionEEEC2B8ne180100Ev, symObjAddr: 0xA954, symBinAddr: 0x10000BFEC, symSize: 0x14 }
  - { offset: 0x14ED0, size: 0x8, addend: 0x0, symName: __ZNSt3__128__exception_guard_exceptionsINS_6vectorI10ProductionNS_9allocatorIS2_EEE16__destroy_vectorEEC1B8ne180100ES6_, symObjAddr: 0xA968, symBinAddr: 0x10000C000, symSize: 0x34 }
  - { offset: 0x14F08, size: 0x8, addend: 0x0, symName: __ZNSt3__128__exception_guard_exceptionsINS_6vectorI10ProductionNS_9allocatorIS2_EEE16__destroy_vectorEEC2B8ne180100ES6_, symObjAddr: 0xA99C, symBinAddr: 0x10000C034, symSize: 0x24 }
  - { offset: 0x14F40, size: 0x8, addend: 0x0, symName: __ZNSt3__16vectorI10ProductionNS_9allocatorIS1_EEE16__destroy_vectorC2B8ne180100ERS4_, symObjAddr: 0xA9C0, symBinAddr: 0x10000C058, symSize: 0x20 }
  - { offset: 0x14F79, size: 0x8, addend: 0x0, symName: __ZNKSt3__16vectorI10ProductionNS_9allocatorIS1_EEE8max_sizeEv, symObjAddr: 0xA9E0, symBinAddr: 0x10000C078, symSize: 0x60 }
  - { offset: 0x14FA1, size: 0x8, addend: 0x0, symName: __ZNKSt3__16vectorI10ProductionNS_9allocatorIS1_EEE20__throw_length_errorB8ne180100Ev, symObjAddr: 0xAA40, symBinAddr: 0x10000C0D8, symSize: 0x1C }
  - { offset: 0x14FC7, size: 0x8, addend: 0x0, symName: __ZNSt3__16vectorI10ProductionNS_9allocatorIS1_EEE7__allocB8ne180100Ev, symObjAddr: 0xAA9C, symBinAddr: 0x10000C134, symSize: 0x28 }
  - { offset: 0x14FED, size: 0x8, addend: 0x0, symName: __ZNSt3__16vectorI10ProductionNS_9allocatorIS1_EEE9__end_capB8ne180100Ev, symObjAddr: 0xAAC4, symBinAddr: 0x10000C15C, symSize: 0x28 }
  - { offset: 0x15013, size: 0x8, addend: 0x0, symName: __ZNKSt3__16vectorI10ProductionNS_9allocatorIS1_EEE14__annotate_newB8ne180100Em, symObjAddr: 0xAAEC, symBinAddr: 0x10000C184, symSize: 0x14 }
  - { offset: 0x15052, size: 0x8, addend: 0x0, symName: __ZNSt3__116allocator_traitsINS_9allocatorI10ProductionEEE8max_sizeB8ne180100IS3_vEEmRKS3_, symObjAddr: 0xAB00, symBinAddr: 0x10000C198, symSize: 0x24 }
  - { offset: 0x15080, size: 0x8, addend: 0x0, symName: __ZNKSt3__16vectorI10ProductionNS_9allocatorIS1_EEE7__allocB8ne180100Ev, symObjAddr: 0xAB24, symBinAddr: 0x10000C1BC, symSize: 0x28 }
  - { offset: 0x150A6, size: 0x8, addend: 0x0, symName: __ZNKSt3__19allocatorI10ProductionE8max_sizeB8ne180100Ev, symObjAddr: 0xAB4C, symBinAddr: 0x10000C1E4, symSize: 0x18 }
  - { offset: 0x150CC, size: 0x8, addend: 0x0, symName: __ZNKSt3__117__compressed_pairIP10ProductionNS_9allocatorIS1_EEE6secondB8ne180100Ev, symObjAddr: 0xAB64, symBinAddr: 0x10000C1FC, symSize: 0x24 }
  - { offset: 0x150F2, size: 0x8, addend: 0x0, symName: __ZNKSt3__122__compressed_pair_elemINS_9allocatorI10ProductionEELi1ELb1EE5__getB8ne180100Ev, symObjAddr: 0xAB88, symBinAddr: 0x10000C220, symSize: 0x14 }
  - { offset: 0x15118, size: 0x8, addend: 0x0, symName: __ZNSt3__19allocatorI10ProductionE8allocateB8ne180100Em, symObjAddr: 0xAB9C, symBinAddr: 0x10000C234, symSize: 0x5C }
  - { offset: 0x1514C, size: 0x8, addend: 0x0, symName: __ZNSt3__117__compressed_pairIP10ProductionNS_9allocatorIS1_EEE6secondB8ne180100Ev, symObjAddr: 0xABF8, symBinAddr: 0x10000C290, symSize: 0x24 }
  - { offset: 0x15172, size: 0x8, addend: 0x0, symName: __ZNSt3__122__compressed_pair_elemINS_9allocatorI10ProductionEELi1ELb1EE5__getB8ne180100Ev, symObjAddr: 0xAC1C, symBinAddr: 0x10000C2B4, symSize: 0x14 }
  - { offset: 0x15198, size: 0x8, addend: 0x0, symName: __ZNSt3__117__compressed_pairIP10ProductionNS_9allocatorIS1_EEE5firstB8ne180100Ev, symObjAddr: 0xAC30, symBinAddr: 0x10000C2C8, symSize: 0x24 }
  - { offset: 0x151BE, size: 0x8, addend: 0x0, symName: __ZNSt3__122__compressed_pair_elemIP10ProductionLi0ELb0EE5__getB8ne180100Ev, symObjAddr: 0xAC54, symBinAddr: 0x10000C2EC, symSize: 0x14 }
  - { offset: 0x151FD, size: 0x8, addend: 0x0, symName: __ZNSt3__16vectorI10ProductionNS_9allocatorIS1_EEE21_ConstructTransactionC1B8ne180100ERS4_m, symObjAddr: 0xAC68, symBinAddr: 0x10000C300, symSize: 0x3C }
  - { offset: 0x15245, size: 0x8, addend: 0x0, symName: __ZNSt3__16vectorI10ProductionNS_9allocatorIS1_EEE21_ConstructTransactionD1B8ne180100Ev, symObjAddr: 0xAD24, symBinAddr: 0x10000C3BC, symSize: 0x2C }
  - { offset: 0x1526F, size: 0x8, addend: 0x0, symName: __ZNSt3__16vectorI10ProductionNS_9allocatorIS1_EEE21_ConstructTransactionC2B8ne180100ERS4_m, symObjAddr: 0xAD50, symBinAddr: 0x10000C3E8, symSize: 0x4C }
  - { offset: 0x152D5, size: 0x8, addend: 0x0, symName: __ZNSt3__14pairIPK10ProductionS3_EC1B8ne180100IS3_S3_Li0EEEOT_OT0_, symObjAddr: 0xAFAC, symBinAddr: 0x10000C644, symSize: 0x3C }
  - { offset: 0x15333, size: 0x8, addend: 0x0, symName: __ZNSt3__14pairIPK10ProductionS3_EC2B8ne180100IS3_S3_Li0EEEOT_OT0_, symObjAddr: 0xAFE8, symBinAddr: 0x10000C680, symSize: 0x34 }
  - { offset: 0x15391, size: 0x8, addend: 0x0, symName: __ZNSt3__118__unwrap_iter_implIPK10ProductionLb1EE8__unwrapB8ne180100ES3_, symObjAddr: 0xB01C, symBinAddr: 0x10000C6B4, symSize: 0x24 }
  - { offset: 0x153B4, size: 0x8, addend: 0x0, symName: __ZNSt3__129_AllocatorDestroyRangeReverseINS_9allocatorI10ProductionEEPS2_EC1B8ne180100ERS3_RS4_S7_, symObjAddr: 0xB0A0, symBinAddr: 0x10000C738, symSize: 0x44 }
  - { offset: 0x1540B, size: 0x8, addend: 0x0, symName: __ZNSt3__116allocator_traitsINS_9allocatorI10ProductionEEE9constructB8ne180100IS2_JRKS2_EvEEvRS3_PT_DpOT0_, symObjAddr: 0xB0E4, symBinAddr: 0x10000C77C, symSize: 0x34 }
  - { offset: 0x15462, size: 0x8, addend: 0x0, symName: __ZNSt3__128__exception_guard_exceptionsINS_29_AllocatorDestroyRangeReverseINS_9allocatorI10ProductionEEPS3_EEE10__completeB8ne180100Ev, symObjAddr: 0xB12C, symBinAddr: 0x10000C7C4, symSize: 0x1C }
  - { offset: 0x15488, size: 0x8, addend: 0x0, symName: __ZNSt3__128__exception_guard_exceptionsINS_29_AllocatorDestroyRangeReverseINS_9allocatorI10ProductionEEPS3_EEED1B8ne180100Ev, symObjAddr: 0xB148, symBinAddr: 0x10000C7E0, symSize: 0x2C }
  - { offset: 0x154B2, size: 0x8, addend: 0x0, symName: __ZNSt3__128__exception_guard_exceptionsINS_29_AllocatorDestroyRangeReverseINS_9allocatorI10ProductionEEPS3_EEEC1B8ne180100ES6_, symObjAddr: 0xB174, symBinAddr: 0x10000C80C, symSize: 0x34 }
  - { offset: 0x154EB, size: 0x8, addend: 0x0, symName: __ZNSt3__128__exception_guard_exceptionsINS_29_AllocatorDestroyRangeReverseINS_9allocatorI10ProductionEEPS3_EEEC2B8ne180100ES6_, symObjAddr: 0xB1A8, symBinAddr: 0x10000C840, symSize: 0x30 }
  - { offset: 0x15524, size: 0x8, addend: 0x0, symName: __ZNSt3__129_AllocatorDestroyRangeReverseINS_9allocatorI10ProductionEEPS2_EC2B8ne180100ERS3_RS4_S7_, symObjAddr: 0xB1D8, symBinAddr: 0x10000C870, symSize: 0x38 }
  - { offset: 0x1557B, size: 0x8, addend: 0x0, symName: __ZNSt3__19allocatorI10ProductionE9constructB8ne180100IS1_JRKS1_EEEvPT_DpOT0_, symObjAddr: 0xB210, symBinAddr: 0x10000C8A8, symSize: 0x30 }
  - { offset: 0x155D1, size: 0x8, addend: 0x0, symName: __ZN10ProductionC1ERKS_, symObjAddr: 0xB240, symBinAddr: 0x10000C8D8, symSize: 0x34 }
  - { offset: 0x15606, size: 0x8, addend: 0x0, symName: __ZN10ProductionC2ERKS_, symObjAddr: 0xB274, symBinAddr: 0x10000C90C, symSize: 0x70 }
  - { offset: 0x1563B, size: 0x8, addend: 0x0, symName: __ZNSt3__128__exception_guard_exceptionsINS_29_AllocatorDestroyRangeReverseINS_9allocatorI10ProductionEEPS3_EEED2B8ne180100Ev, symObjAddr: 0xB2E4, symBinAddr: 0x10000C97C, symSize: 0x50 }
  - { offset: 0x15665, size: 0x8, addend: 0x0, symName: __ZNKSt3__129_AllocatorDestroyRangeReverseINS_9allocatorI10ProductionEEPS2_EclB8ne180100Ev, symObjAddr: 0xB334, symBinAddr: 0x10000C9CC, symSize: 0x68 }
  - { offset: 0x1568B, size: 0x8, addend: 0x0, symName: __ZNSt3__116reverse_iteratorIP10ProductionEC1B8ne180100ES2_, symObjAddr: 0xB40C, symBinAddr: 0x10000CAA4, symSize: 0x34 }
  - { offset: 0x156C3, size: 0x8, addend: 0x0, symName: __ZNSt3__116allocator_traitsINS_9allocatorI10ProductionEEE7destroyB8ne180100IS2_vEEvRS3_PT_, symObjAddr: 0xB488, symBinAddr: 0x10000CB20, symSize: 0x2C }
  - { offset: 0x15700, size: 0x8, addend: 0x0, symName: __ZNSt3__116reverse_iteratorIP10ProductionEppB8ne180100Ev, symObjAddr: 0xB4D8, symBinAddr: 0x10000CB70, symSize: 0x20 }
  - { offset: 0x15726, size: 0x8, addend: 0x0, symName: __ZNKSt3__116reverse_iteratorIP10ProductionE4baseB8ne180100Ev, symObjAddr: 0xB4F8, symBinAddr: 0x10000CB90, symSize: 0x18 }
  - { offset: 0x1574C, size: 0x8, addend: 0x0, symName: __ZNSt3__19allocatorI10ProductionE7destroyB8ne180100EPS1_, symObjAddr: 0xB510, symBinAddr: 0x10000CBA8, symSize: 0x28 }
  - { offset: 0x15785, size: 0x8, addend: 0x0, symName: __ZNSt3__119__to_address_helperINS_16reverse_iteratorIP10ProductionEEvE6__callB8ne180100ERKS4_, symObjAddr: 0xB538, symBinAddr: 0x10000CBD0, symSize: 0x38 }
  - { offset: 0x157A8, size: 0x8, addend: 0x0, symName: __ZNKSt3__116reverse_iteratorIP10ProductionEptB8ne180100Ev, symObjAddr: 0xB570, symBinAddr: 0x10000CC08, symSize: 0x24 }
  - { offset: 0x157CE, size: 0x8, addend: 0x0, symName: __ZNKSt3__116reverse_iteratorIP10ProductionEdeB8ne180100Ev, symObjAddr: 0xB594, symBinAddr: 0x10000CC2C, symSize: 0x28 }
  - { offset: 0x15802, size: 0x8, addend: 0x0, symName: __ZNSt3__116reverse_iteratorIP10ProductionEC2B8ne180100ES2_, symObjAddr: 0xB5BC, symBinAddr: 0x10000CC54, symSize: 0x28 }
  - { offset: 0x1583A, size: 0x8, addend: 0x0, symName: __ZNSt3__118__unwrap_iter_implIP10ProductionLb1EE8__unwrapB8ne180100ES2_, symObjAddr: 0xB5E4, symBinAddr: 0x10000CC7C, symSize: 0x24 }
  - { offset: 0x1585D, size: 0x8, addend: 0x0, symName: __ZNSt3__118__unwrap_iter_implIP10ProductionLb1EE8__rewrapB8ne180100ES2_S2_, symObjAddr: 0xB608, symBinAddr: 0x10000CCA0, symSize: 0x58 }
  - { offset: 0x1588E, size: 0x8, addend: 0x0, symName: __ZNSt3__16vectorI10ProductionNS_9allocatorIS1_EEE21_ConstructTransactionD2B8ne180100Ev, symObjAddr: 0xB660, symBinAddr: 0x10000CCF8, symSize: 0x20 }
  - { offset: 0x158B8, size: 0x8, addend: 0x0, symName: __ZNSt3__128__exception_guard_exceptionsINS_6vectorI10ProductionNS_9allocatorIS2_EEE16__destroy_vectorEED2B8ne180100Ev, symObjAddr: 0xB680, symBinAddr: 0x10000CD18, symSize: 0x50 }
  - { offset: 0x158E2, size: 0x8, addend: 0x0, symName: __ZNSt3__16vectorI10ProductionNS_9allocatorIS1_EEE16__destroy_vectorclB8ne180100Ev, symObjAddr: 0xB6D0, symBinAddr: 0x10000CD68, symSize: 0x90 }
  - { offset: 0x15908, size: 0x8, addend: 0x0, symName: __ZNSt3__16vectorI10ProductionNS_9allocatorIS1_EEE7__clearB8ne180100Ev, symObjAddr: 0xB760, symBinAddr: 0x10000CDF8, symSize: 0x28 }
  - { offset: 0x1592E, size: 0x8, addend: 0x0, symName: __ZNKSt3__16vectorI10ProductionNS_9allocatorIS1_EEE17__annotate_deleteB8ne180100Ev, symObjAddr: 0xB788, symBinAddr: 0x10000CE20, symSize: 0x10 }
  - { offset: 0x15954, size: 0x8, addend: 0x0, symName: __ZNSt3__116allocator_traitsINS_9allocatorI10ProductionEEE10deallocateB8ne180100ERS3_PS2_m, symObjAddr: 0xB798, symBinAddr: 0x10000CE30, symSize: 0x34 }
  - { offset: 0x15996, size: 0x8, addend: 0x0, symName: __ZNKSt3__16vectorI10ProductionNS_9allocatorIS1_EEE8capacityB8ne180100Ev, symObjAddr: 0xB7CC, symBinAddr: 0x10000CE64, symSize: 0x40 }
  - { offset: 0x159BC, size: 0x8, addend: 0x0, symName: __ZNSt3__16vectorI10ProductionNS_9allocatorIS1_EEE22__base_destruct_at_endB8ne180100EPS1_, symObjAddr: 0xB80C, symBinAddr: 0x10000CEA4, symSize: 0x8C }
  - { offset: 0x15A00, size: 0x8, addend: 0x0, symName: __ZNSt3__19allocatorI10ProductionE10deallocateB8ne180100EPS1_m, symObjAddr: 0xB898, symBinAddr: 0x10000CF30, symSize: 0x44 }
  - { offset: 0x15A42, size: 0x8, addend: 0x0, symName: __ZNKSt3__16vectorI10ProductionNS_9allocatorIS1_EEE9__end_capB8ne180100Ev, symObjAddr: 0xB8DC, symBinAddr: 0x10000CF74, symSize: 0x28 }
  - { offset: 0x15A68, size: 0x8, addend: 0x0, symName: __ZNKSt3__117__compressed_pairIP10ProductionNS_9allocatorIS1_EEE5firstB8ne180100Ev, symObjAddr: 0xB904, symBinAddr: 0x10000CF9C, symSize: 0x24 }
  - { offset: 0x15A8E, size: 0x8, addend: 0x0, symName: __ZNKSt3__122__compressed_pair_elemIP10ProductionLi0ELb0EE5__getB8ne180100Ev, symObjAddr: 0xB928, symBinAddr: 0x10000CFC0, symSize: 0x14 }
  - { offset: 0x15AB4, size: 0x8, addend: 0x0, symName: __ZNSt3__16vectorI10ProductionNS_9allocatorIS1_EEED2B8ne180100Ev, symObjAddr: 0xB93C, symBinAddr: 0x10000CFD4, symSize: 0x40 }
  - { offset: 0x15ADE, size: 0x8, addend: 0x0, symName: __ZNSt3__13mapINS_4pairINS_12basic_stringIcNS_11char_traitsIcEENS_9allocatorIcEEEES7_EEiNS_4lessIS8_EENS5_INS1_IKS8_iEEEEEC2B8ne180100Ev, symObjAddr: 0xB97C, symBinAddr: 0x10000D014, symSize: 0x40 }
  - { offset: 0x15B08, size: 0x8, addend: 0x0, symName: __ZNSt3__119__map_value_compareINS_4pairINS_12basic_stringIcNS_11char_traitsIcEENS_9allocatorIcEEEES7_EENS_12__value_typeIS8_iEENS_4lessIS8_EELb1EEC1B8ne180100ESC_, symObjAddr: 0xB9BC, symBinAddr: 0x10000D054, symSize: 0x2C }
  - { offset: 0x15B41, size: 0x8, addend: 0x0, symName: __ZNSt3__16__treeINS_12__value_typeINS_4pairINS_12basic_stringIcNS_11char_traitsIcEENS_9allocatorIcEEEES8_EEiEENS_19__map_value_compareIS9_SA_NS_4lessIS9_EELb1EEENS6_ISA_EEEC1ERKSE_, symObjAddr: 0xB9E8, symBinAddr: 0x10000D080, symSize: 0x34 }
  - { offset: 0x15B7C, size: 0x8, addend: 0x0, symName: __ZNSt3__119__map_value_compareINS_4pairINS_12basic_stringIcNS_11char_traitsIcEENS_9allocatorIcEEEES7_EENS_12__value_typeIS8_iEENS_4lessIS8_EELb1EEC2B8ne180100ESC_, symObjAddr: 0xBA1C, symBinAddr: 0x10000D0B4, symSize: 0x14 }
  - { offset: 0x15BB5, size: 0x8, addend: 0x0, symName: __ZNSt3__16__treeINS_12__value_typeINS_4pairINS_12basic_stringIcNS_11char_traitsIcEENS_9allocatorIcEEEES8_EEiEENS_19__map_value_compareIS9_SA_NS_4lessIS9_EELb1EEENS6_ISA_EEEC2ERKSE_, symObjAddr: 0xBA30, symBinAddr: 0x10000D0C8, symSize: 0x7C }
  - { offset: 0x15BF0, size: 0x8, addend: 0x0, symName: __ZNSt3__117__compressed_pairINS_15__tree_end_nodeIPNS_16__tree_node_baseIPvEEEENS_9allocatorINS_11__tree_nodeINS_12__value_typeINS_4pairINS_12basic_stringIcNS_11char_traitsIcEENS7_IcEEEESF_EEiEES3_EEEEEC1B8ne180100ILb1EvEEv, symObjAddr: 0xBAAC, symBinAddr: 0x10000D144, symSize: 0x2C }
  - { offset: 0x15C2A, size: 0x8, addend: 0x0, symName: __ZNSt3__117__compressed_pairImNS_19__map_value_compareINS_4pairINS_12basic_stringIcNS_11char_traitsIcEENS_9allocatorIcEEEES8_EENS_12__value_typeIS9_iEENS_4lessIS9_EELb1EEEEC1B8ne180100IiRKSE_EEOT_OT0_, symObjAddr: 0xBAD8, symBinAddr: 0x10000D170, symSize: 0x3C }
  - { offset: 0x15C82, size: 0x8, addend: 0x0, symName: __ZNSt3__16__treeINS_12__value_typeINS_4pairINS_12basic_stringIcNS_11char_traitsIcEENS_9allocatorIcEEEES8_EEiEENS_19__map_value_compareIS9_SA_NS_4lessIS9_EELb1EEENS6_ISA_EEE10__end_nodeB8ne180100Ev, symObjAddr: 0xBB14, symBinAddr: 0x10000D1AC, symSize: 0x2C }
  - { offset: 0x15CA8, size: 0x8, addend: 0x0, symName: __ZNSt3__16__treeINS_12__value_typeINS_4pairINS_12basic_stringIcNS_11char_traitsIcEENS_9allocatorIcEEEES8_EEiEENS_19__map_value_compareIS9_SA_NS_4lessIS9_EELb1EEENS6_ISA_EEE12__begin_nodeB8ne180100Ev, symObjAddr: 0xBB40, symBinAddr: 0x10000D1D8, symSize: 0x14 }
  - { offset: 0x15CCE, size: 0x8, addend: 0x0, symName: __ZNSt3__117__compressed_pairINS_15__tree_end_nodeIPNS_16__tree_node_baseIPvEEEENS_9allocatorINS_11__tree_nodeINS_12__value_typeINS_4pairINS_12basic_stringIcNS_11char_traitsIcEENS7_IcEEEESF_EEiEES3_EEEEEC2B8ne180100ILb1EvEEv, symObjAddr: 0xBB54, symBinAddr: 0x10000D1EC, symSize: 0x34 }
  - { offset: 0x15D03, size: 0x8, addend: 0x0, symName: __ZNSt3__122__compressed_pair_elemINS_15__tree_end_nodeIPNS_16__tree_node_baseIPvEEEELi0ELb0EEC2B8ne180100ENS_16__value_init_tagE, symObjAddr: 0xBB88, symBinAddr: 0x10000D220, symSize: 0x2C }
  - { offset: 0x15D37, size: 0x8, addend: 0x0, symName: __ZNSt3__122__compressed_pair_elemINS_9allocatorINS_11__tree_nodeINS_12__value_typeINS_4pairINS_12basic_stringIcNS_11char_traitsIcEENS1_IcEEEES9_EEiEEPvEEEELi1ELb1EEC2B8ne180100ENS_16__value_init_tagE, symObjAddr: 0xBBB4, symBinAddr: 0x10000D24C, symSize: 0x2C }
  - { offset: 0x15D6B, size: 0x8, addend: 0x0, symName: __ZNSt3__115__tree_end_nodeIPNS_16__tree_node_baseIPvEEEC1B8ne180100Ev, symObjAddr: 0xBBE0, symBinAddr: 0x10000D278, symSize: 0x2C }
  - { offset: 0x15D95, size: 0x8, addend: 0x0, symName: __ZNSt3__115__tree_end_nodeIPNS_16__tree_node_baseIPvEEEC2B8ne180100Ev, symObjAddr: 0xBC0C, symBinAddr: 0x10000D2A4, symSize: 0x18 }
  - { offset: 0x15DBF, size: 0x8, addend: 0x0, symName: __ZNSt3__19allocatorINS_11__tree_nodeINS_12__value_typeINS_4pairINS_12basic_stringIcNS_11char_traitsIcEENS0_IcEEEES8_EEiEEPvEEEC2B8ne180100Ev, symObjAddr: 0xBC24, symBinAddr: 0x10000D2BC, symSize: 0x2C }
  - { offset: 0x15DE9, size: 0x8, addend: 0x0, symName: __ZNSt3__116__non_trivial_ifILb1ENS_9allocatorINS_11__tree_nodeINS_12__value_typeINS_4pairINS_12basic_stringIcNS_11char_traitsIcEENS1_IcEEEES9_EEiEEPvEEEEEC2B8ne180100Ev, symObjAddr: 0xBC50, symBinAddr: 0x10000D2E8, symSize: 0x14 }
  - { offset: 0x15E13, size: 0x8, addend: 0x0, symName: __ZNSt3__117__compressed_pairImNS_19__map_value_compareINS_4pairINS_12basic_stringIcNS_11char_traitsIcEENS_9allocatorIcEEEES8_EENS_12__value_typeIS9_iEENS_4lessIS9_EELb1EEEEC2B8ne180100IiRKSE_EEOT_OT0_, symObjAddr: 0xBC64, symBinAddr: 0x10000D2FC, symSize: 0x44 }
  - { offset: 0x15E6B, size: 0x8, addend: 0x0, symName: __ZNSt3__122__compressed_pair_elemImLi0ELb0EEC2B8ne180100IivEEOT_, symObjAddr: 0xBCA8, symBinAddr: 0x10000D340, symSize: 0x24 }
  - { offset: 0x15EAD, size: 0x8, addend: 0x0, symName: __ZNSt3__122__compressed_pair_elemINS_19__map_value_compareINS_4pairINS_12basic_stringIcNS_11char_traitsIcEENS_9allocatorIcEEEES8_EENS_12__value_typeIS9_iEENS_4lessIS9_EELb1EEELi1ELb1EEC2B8ne180100IRKSE_vEEOT_, symObjAddr: 0xBCCC, symBinAddr: 0x10000D364, symSize: 0x18 }
  - { offset: 0x15EEF, size: 0x8, addend: 0x0, symName: __ZNSt3__114pointer_traitsIPNS_15__tree_end_nodeIPNS_16__tree_node_baseIPvEEEEE10pointer_toB8ne180100ERS6_, symObjAddr: 0xBCE4, symBinAddr: 0x10000D37C, symSize: 0x14 }
  - { offset: 0x15F12, size: 0x8, addend: 0x0, symName: __ZNSt3__117__compressed_pairINS_15__tree_end_nodeIPNS_16__tree_node_baseIPvEEEENS_9allocatorINS_11__tree_nodeINS_12__value_typeINS_4pairINS_12basic_stringIcNS_11char_traitsIcEENS7_IcEEEESF_EEiEES3_EEEEE5firstB8ne180100Ev, symObjAddr: 0xBCF8, symBinAddr: 0x10000D390, symSize: 0x24 }
  - { offset: 0x15F38, size: 0x8, addend: 0x0, symName: __ZNSt3__122__compressed_pair_elemINS_15__tree_end_nodeIPNS_16__tree_node_baseIPvEEEELi0ELb0EE5__getB8ne180100Ev, symObjAddr: 0xBD1C, symBinAddr: 0x10000D3B4, symSize: 0x14 }
  - { offset: 0x15F5E, size: 0x8, addend: 0x0, symName: __ZNSt3__13mapINS_4pairINS_12basic_stringIcNS_11char_traitsIcEENS_9allocatorIcEEEES7_EEiNS_4lessIS8_EENS5_INS1_IKS8_iEEEEED2B8ne180100Ev, symObjAddr: 0xBD30, symBinAddr: 0x10000D3C8, symSize: 0x2C }
  - { offset: 0x15F88, size: 0x8, addend: 0x0, symName: __ZNSt3__16__treeINS_12__value_typeINS_4pairINS_12basic_stringIcNS_11char_traitsIcEENS_9allocatorIcEEEES8_EEiEENS_19__map_value_compareIS9_SA_NS_4lessIS9_EELb1EEENS6_ISA_EEED1Ev, symObjAddr: 0xBD5C, symBinAddr: 0x10000D3F4, symSize: 0x2C }
  - { offset: 0x15FB4, size: 0x8, addend: 0x0, symName: __ZNSt3__16__treeINS_12__value_typeINS_4pairINS_12basic_stringIcNS_11char_traitsIcEENS_9allocatorIcEEEES8_EEiEENS_19__map_value_compareIS9_SA_NS_4lessIS9_EELb1EEENS6_ISA_EEED2Ev, symObjAddr: 0xBD88, symBinAddr: 0x10000D420, symSize: 0x38 }
  - { offset: 0x15FE0, size: 0x8, addend: 0x0, symName: __ZNSt3__16__treeINS_12__value_typeINS_4pairINS_12basic_stringIcNS_11char_traitsIcEENS_9allocatorIcEEEES8_EEiEENS_19__map_value_compareIS9_SA_NS_4lessIS9_EELb1EEENS6_ISA_EEE7destroyEPNS_11__tree_nodeISA_PvEE, symObjAddr: 0xBDC0, symBinAddr: 0x10000D458, symSize: 0xAC }
  - { offset: 0x1602C, size: 0x8, addend: 0x0, symName: __ZNKSt3__16__treeINS_12__value_typeINS_4pairINS_12basic_stringIcNS_11char_traitsIcEENS_9allocatorIcEEEES8_EEiEENS_19__map_value_compareIS9_SA_NS_4lessIS9_EELb1EEENS6_ISA_EEE6__rootB8ne180100Ev, symObjAddr: 0xBE6C, symBinAddr: 0x10000D504, symSize: 0x28 }
  - { offset: 0x16052, size: 0x8, addend: 0x0, symName: __ZNSt3__16__treeINS_12__value_typeINS_4pairINS_12basic_stringIcNS_11char_traitsIcEENS_9allocatorIcEEEES8_EEiEENS_19__map_value_compareIS9_SA_NS_4lessIS9_EELb1EEENS6_ISA_EEE12__node_allocB8ne180100Ev, symObjAddr: 0xBE94, symBinAddr: 0x10000D52C, symSize: 0x28 }
  - { offset: 0x16078, size: 0x8, addend: 0x0, symName: __ZNSt3__116allocator_traitsINS_9allocatorINS_11__tree_nodeINS_12__value_typeINS_4pairINS_12basic_stringIcNS_11char_traitsIcEENS1_IcEEEES9_EEiEEPvEEEEE7destroyB8ne180100INS4_IKSA_iEEvvEEvRSE_PT_, symObjAddr: 0xBEBC, symBinAddr: 0x10000D554, symSize: 0x28 }
  - { offset: 0x160B3, size: 0x8, addend: 0x0, symName: __ZNSt3__122__tree_key_value_typesINS_12__value_typeINS_4pairINS_12basic_stringIcNS_11char_traitsIcEENS_9allocatorIcEEEES8_EEiEEE9__get_ptrB8ne180100ERSA_, symObjAddr: 0xBEE4, symBinAddr: 0x10000D57C, symSize: 0x24 }
  - { offset: 0x160D7, size: 0x8, addend: 0x0, symName: __ZNSt3__116allocator_traitsINS_9allocatorINS_11__tree_nodeINS_12__value_typeINS_4pairINS_12basic_stringIcNS_11char_traitsIcEENS1_IcEEEES9_EEiEEPvEEEEE10deallocateB8ne180100ERSE_PSD_m, symObjAddr: 0xBF08, symBinAddr: 0x10000D5A0, symSize: 0x34 }
  - { offset: 0x16119, size: 0x8, addend: 0x0, symName: __ZNSt3__117__compressed_pairINS_15__tree_end_nodeIPNS_16__tree_node_baseIPvEEEENS_9allocatorINS_11__tree_nodeINS_12__value_typeINS_4pairINS_12basic_stringIcNS_11char_traitsIcEENS7_IcEEEESF_EEiEES3_EEEEE6secondB8ne180100Ev, symObjAddr: 0xBF3C, symBinAddr: 0x10000D5D4, symSize: 0x24 }
  - { offset: 0x1613F, size: 0x8, addend: 0x0, symName: __ZNSt3__122__compressed_pair_elemINS_9allocatorINS_11__tree_nodeINS_12__value_typeINS_4pairINS_12basic_stringIcNS_11char_traitsIcEENS1_IcEEEES9_EEiEEPvEEEELi1ELb1EE5__getB8ne180100Ev, symObjAddr: 0xBF60, symBinAddr: 0x10000D5F8, symSize: 0x14 }
  - { offset: 0x16165, size: 0x8, addend: 0x0, symName: __ZNSt3__14pairIKNS0_INS_12basic_stringIcNS_11char_traitsIcEENS_9allocatorIcEEEES6_EEiED1Ev, symObjAddr: 0xBF98, symBinAddr: 0x10000D630, symSize: 0x2C }
  - { offset: 0x16191, size: 0x8, addend: 0x0, symName: __ZNSt3__14pairIKNS0_INS_12basic_stringIcNS_11char_traitsIcEENS_9allocatorIcEEEES6_EEiED2Ev, symObjAddr: 0xBFC4, symBinAddr: 0x10000D65C, symSize: 0x2C }
  - { offset: 0x161BD, size: 0x8, addend: 0x0, symName: __ZNSt3__112__value_typeINS_4pairINS_12basic_stringIcNS_11char_traitsIcEENS_9allocatorIcEEEES7_EEiE11__get_valueB8ne180100Ev, symObjAddr: 0xBFF0, symBinAddr: 0x10000D688, symSize: 0x14 }
  - { offset: 0x161E3, size: 0x8, addend: 0x0, symName: __ZNSt3__19allocatorINS_11__tree_nodeINS_12__value_typeINS_4pairINS_12basic_stringIcNS_11char_traitsIcEENS0_IcEEEES8_EEiEEPvEEE10deallocateB8ne180100EPSC_m, symObjAddr: 0xC004, symBinAddr: 0x10000D69C, symSize: 0x44 }
  - { offset: 0x16225, size: 0x8, addend: 0x0, symName: __ZNKSt3__16__treeINS_12__value_typeINS_4pairINS_12basic_stringIcNS_11char_traitsIcEENS_9allocatorIcEEEES8_EEiEENS_19__map_value_compareIS9_SA_NS_4lessIS9_EELb1EEENS6_ISA_EEE10__end_nodeB8ne180100Ev, symObjAddr: 0xC048, symBinAddr: 0x10000D6E0, symSize: 0x2C }
  - { offset: 0x1624B, size: 0x8, addend: 0x0, symName: __ZNKSt3__117__compressed_pairINS_15__tree_end_nodeIPNS_16__tree_node_baseIPvEEEENS_9allocatorINS_11__tree_nodeINS_12__value_typeINS_4pairINS_12basic_stringIcNS_11char_traitsIcEENS7_IcEEEESF_EEiEES3_EEEEE5firstB8ne180100Ev, symObjAddr: 0xC074, symBinAddr: 0x10000D70C, symSize: 0x24 }
  - { offset: 0x16271, size: 0x8, addend: 0x0, symName: __ZNKSt3__122__compressed_pair_elemINS_15__tree_end_nodeIPNS_16__tree_node_baseIPvEEEELi0ELb0EE5__getB8ne180100Ev, symObjAddr: 0xC098, symBinAddr: 0x10000D730, symSize: 0x14 }
  - { offset: 0x162AB, size: 0x8, addend: 0x0, symName: __ZNSt3__16__treeINS_12__value_typeINS_4pairINS_12basic_stringIcNS_11char_traitsIcEENS_9allocatorIcEEEES8_EEiEENS_19__map_value_compareIS9_SA_NS_4lessIS9_EELb1EEENS6_ISA_EEE25__emplace_unique_key_argsIS9_JRKNS_21piecewise_construct_tENS_5tupleIJOS9_EEENSL_IJEEEEEENS2_INS_15__tree_iteratorISA_PNS_11__tree_nodeISA_PvEElEEbEERKT_DpOT0_, symObjAddr: 0xC0AC, symBinAddr: 0x10000D744, symSize: 0x100 }
  - { offset: 0x16381, size: 0x8, addend: 0x0, symName: __ZNKSt3__115__tree_iteratorINS_12__value_typeINS_4pairINS_12basic_stringIcNS_11char_traitsIcEENS_9allocatorIcEEEES8_EEiEEPNS_11__tree_nodeISA_PvEElEptB8ne180100Ev, symObjAddr: 0xC1DC, symBinAddr: 0x10000D874, symSize: 0x2C }
  - { offset: 0x163A7, size: 0x8, addend: 0x0, symName: __ZNSt3__16__treeINS_12__value_typeINS_4pairINS_12basic_stringIcNS_11char_traitsIcEENS_9allocatorIcEEEES8_EEiEENS_19__map_value_compareIS9_SA_NS_4lessIS9_EELb1EEENS6_ISA_EEE12__find_equalIS9_EERPNS_16__tree_node_baseIPvEERPNS_15__tree_end_nodeISL_EERKT_, symObjAddr: 0xC208, symBinAddr: 0x10000D8A0, symSize: 0x184 }
  - { offset: 0x16414, size: 0x8, addend: 0x0, symName: __ZNSt3__16__treeINS_12__value_typeINS_4pairINS_12basic_stringIcNS_11char_traitsIcEENS_9allocatorIcEEEES8_EEiEENS_19__map_value_compareIS9_SA_NS_4lessIS9_EELb1EEENS6_ISA_EEE16__construct_nodeIJRKNS_21piecewise_construct_tENS_5tupleIJOS9_EEENSL_IJEEEEEENS_10unique_ptrINS_11__tree_nodeISA_PvEENS_22__tree_node_destructorINS6_ISS_EEEEEEDpOT_, symObjAddr: 0xC38C, symBinAddr: 0x10000DA24, symSize: 0x120 }
  - { offset: 0x1649D, size: 0x8, addend: 0x0, symName: __ZNSt3__16__treeINS_12__value_typeINS_4pairINS_12basic_stringIcNS_11char_traitsIcEENS_9allocatorIcEEEES8_EEiEENS_19__map_value_compareIS9_SA_NS_4lessIS9_EELb1EEENS6_ISA_EEE16__insert_node_atEPNS_15__tree_end_nodeIPNS_16__tree_node_baseIPvEEEERSL_SL_, symObjAddr: 0xC4AC, symBinAddr: 0x10000DB44, symSize: 0xCC }
  - { offset: 0x164F2, size: 0x8, addend: 0x0, symName: __ZNKSt3__110unique_ptrINS_11__tree_nodeINS_12__value_typeINS_4pairINS_12basic_stringIcNS_11char_traitsIcEENS_9allocatorIcEEEES9_EEiEEPvEENS_22__tree_node_destructorINS7_ISD_EEEEE3getB8ne180100Ev, symObjAddr: 0xC578, symBinAddr: 0x10000DC10, symSize: 0x28 }
  - { offset: 0x16518, size: 0x8, addend: 0x0, symName: __ZNSt3__110unique_ptrINS_11__tree_nodeINS_12__value_typeINS_4pairINS_12basic_stringIcNS_11char_traitsIcEENS_9allocatorIcEEEES9_EEiEEPvEENS_22__tree_node_destructorINS7_ISD_EEEEE7releaseB8ne180100Ev, symObjAddr: 0xC5A0, symBinAddr: 0x10000DC38, symSize: 0x44 }
  - { offset: 0x1654D, size: 0x8, addend: 0x0, symName: __ZNSt3__110unique_ptrINS_11__tree_nodeINS_12__value_typeINS_4pairINS_12basic_stringIcNS_11char_traitsIcEENS_9allocatorIcEEEES9_EEiEEPvEENS_22__tree_node_destructorINS7_ISD_EEEEED1B8ne180100Ev, symObjAddr: 0xC5E4, symBinAddr: 0x10000DC7C, symSize: 0x2C }
  - { offset: 0x16577, size: 0x8, addend: 0x0, symName: __ZNSt3__115__tree_iteratorINS_12__value_typeINS_4pairINS_12basic_stringIcNS_11char_traitsIcEENS_9allocatorIcEEEES8_EEiEEPNS_11__tree_nodeISA_PvEElEC1B8ne180100ESE_, symObjAddr: 0xC610, symBinAddr: 0x10000DCA8, symSize: 0x34 }
  - { offset: 0x165BA, size: 0x8, addend: 0x0, symName: __ZNSt3__14pairINS_15__tree_iteratorINS_12__value_typeINS0_INS_12basic_stringIcNS_11char_traitsIcEENS_9allocatorIcEEEES8_EEiEEPNS_11__tree_nodeISA_PvEElEEbEC1B8ne180100ISF_RbLi0EEEOT_OT0_, symObjAddr: 0xC644, symBinAddr: 0x10000DCDC, symSize: 0x3C }
  - { offset: 0x16618, size: 0x8, addend: 0x0, symName: __ZNKSt3__16__treeINS_12__value_typeINS_4pairINS_12basic_stringIcNS_11char_traitsIcEENS_9allocatorIcEEEES8_EEiEENS_19__map_value_compareIS9_SA_NS_4lessIS9_EELb1EEENS6_ISA_EEE10__root_ptrB8ne180100Ev, symObjAddr: 0xC680, symBinAddr: 0x10000DD18, symSize: 0x24 }
  - { offset: 0x1663E, size: 0x8, addend: 0x0, symName: __ZNSt3__16__treeINS_12__value_typeINS_4pairINS_12basic_stringIcNS_11char_traitsIcEENS_9allocatorIcEEEES8_EEiEENS_19__map_value_compareIS9_SA_NS_4lessIS9_EELb1EEENS6_ISA_EEE10value_compB8ne180100Ev, symObjAddr: 0xC6A4, symBinAddr: 0x10000DD3C, symSize: 0x28 }
  - { offset: 0x16664, size: 0x8, addend: 0x0, symName: __ZNKSt3__119__map_value_compareINS_4pairINS_12basic_stringIcNS_11char_traitsIcEENS_9allocatorIcEEEES7_EENS_12__value_typeIS8_iEENS_4lessIS8_EELb1EEclB8ne180100ERKS8_RKSA_, symObjAddr: 0xC6CC, symBinAddr: 0x10000DD64, symSize: 0x50 }
  - { offset: 0x166A8, size: 0x8, addend: 0x0, symName: __ZNKSt3__119__map_value_compareINS_4pairINS_12basic_stringIcNS_11char_traitsIcEENS_9allocatorIcEEEES7_EENS_12__value_typeIS8_iEENS_4lessIS8_EELb1EEclB8ne180100ERKSA_RKS8_, symObjAddr: 0xC71C, symBinAddr: 0x10000DDB4, symSize: 0x48 }
  - { offset: 0x166EC, size: 0x8, addend: 0x0, symName: __ZNSt3__117__compressed_pairImNS_19__map_value_compareINS_4pairINS_12basic_stringIcNS_11char_traitsIcEENS_9allocatorIcEEEES8_EENS_12__value_typeIS9_iEENS_4lessIS9_EELb1EEEE6secondB8ne180100Ev, symObjAddr: 0xC764, symBinAddr: 0x10000DDFC, symSize: 0x24 }
  - { offset: 0x16712, size: 0x8, addend: 0x0, symName: __ZNSt3__122__compressed_pair_elemINS_19__map_value_compareINS_4pairINS_12basic_stringIcNS_11char_traitsIcEENS_9allocatorIcEEEES8_EENS_12__value_typeIS9_iEENS_4lessIS9_EELb1EEELi1ELb1EE5__getB8ne180100Ev, symObjAddr: 0xC788, symBinAddr: 0x10000DE20, symSize: 0x14 }
  - { offset: 0x16738, size: 0x8, addend: 0x0, symName: __ZNKSt3__14lessINS_4pairINS_12basic_stringIcNS_11char_traitsIcEENS_9allocatorIcEEEES7_EEEclB8ne180100ERKS8_SB_, symObjAddr: 0xC79C, symBinAddr: 0x10000DE34, symSize: 0x34 }
  - { offset: 0x1677C, size: 0x8, addend: 0x0, symName: __ZNKSt3__112__value_typeINS_4pairINS_12basic_stringIcNS_11char_traitsIcEENS_9allocatorIcEEEES7_EEiE11__get_valueB8ne180100Ev, symObjAddr: 0xC7D0, symBinAddr: 0x10000DE68, symSize: 0x14 }
  - { offset: 0x167A2, size: 0x8, addend: 0x0, symName: __ZNKSt3__112basic_stringIcNS_11char_traitsIcEENS_9allocatorIcEEE7compareB8ne180100ERKS5_, symObjAddr: 0xC8A4, symBinAddr: 0x10000DF3C, symSize: 0x4C }
  - { offset: 0x167D9, size: 0x8, addend: 0x0, symName: __ZNKSt3__112basic_stringIcNS_11char_traitsIcEENS_9allocatorIcEEE7compareINS_17basic_string_viewIcS2_EELi0EEEiRKT_, symObjAddr: 0xC8F0, symBinAddr: 0x10000DF88, symSize: 0x12C }
  - { offset: 0x1685C, size: 0x8, addend: 0x0, symName: __ZNKSt3__112basic_stringIcNS_11char_traitsIcEENS_9allocatorIcEEEcvNS_17basic_string_viewIcS2_EEB8ne180100Ev, symObjAddr: 0xCA1C, symBinAddr: 0x10000E0B4, symSize: 0x50 }
  - { offset: 0x16882, size: 0x8, addend: 0x0, symName: __ZNKSt3__117basic_string_viewIcNS_11char_traitsIcEEE4sizeB8ne180100Ev, symObjAddr: 0xCA6C, symBinAddr: 0x10000E104, symSize: 0x18 }
  - { offset: 0x168A8, size: 0x8, addend: 0x0, symName: __ZNSt3__111char_traitsIcE7compareB8ne180100EPKcS3_m, symObjAddr: 0xCA84, symBinAddr: 0x10000E11C, symSize: 0x34 }
  - { offset: 0x168E7, size: 0x8, addend: 0x0, symName: __ZNKSt3__117basic_string_viewIcNS_11char_traitsIcEEE4dataB8ne180100Ev, symObjAddr: 0xCAB8, symBinAddr: 0x10000E150, symSize: 0x18 }
  - { offset: 0x1690D, size: 0x8, addend: 0x0, symName: __ZNSt3__117basic_string_viewIcNS_11char_traitsIcEEEC1B8ne180100EPKcm, symObjAddr: 0xCAD0, symBinAddr: 0x10000E168, symSize: 0x3C }
  - { offset: 0x16955, size: 0x8, addend: 0x0, symName: __ZNSt3__117basic_string_viewIcNS_11char_traitsIcEEEC2B8ne180100EPKcm, symObjAddr: 0xCB0C, symBinAddr: 0x10000E1A4, symSize: 0x2C }
  - { offset: 0x1699D, size: 0x8, addend: 0x0, symName: __ZNSt3__116allocator_traitsINS_9allocatorINS_11__tree_nodeINS_12__value_typeINS_4pairINS_12basic_stringIcNS_11char_traitsIcEENS1_IcEEEES9_EEiEEPvEEEEE8allocateB8ne180100ERSE_m, symObjAddr: 0xCB38, symBinAddr: 0x10000E1D0, symSize: 0x2C }
  - { offset: 0x169D0, size: 0x8, addend: 0x0, symName: __ZNSt3__122__tree_node_destructorINS_9allocatorINS_11__tree_nodeINS_12__value_typeINS_4pairINS_12basic_stringIcNS_11char_traitsIcEENS1_IcEEEES9_EEiEEPvEEEEEC1B8ne180100ERSE_b, symObjAddr: 0xCB64, symBinAddr: 0x10000E1FC, symSize: 0x48 }
  - { offset: 0x16A1D, size: 0x8, addend: 0x0, symName: __ZNSt3__110unique_ptrINS_11__tree_nodeINS_12__value_typeINS_4pairINS_12basic_stringIcNS_11char_traitsIcEENS_9allocatorIcEEEES9_EEiEEPvEENS_22__tree_node_destructorINS7_ISD_EEEEEC1B8ne180100ILb1EvEEPSD_NS_16__dependent_typeINS_27__unique_ptr_deleter_sfinaeISG_EEXT_EE20__good_rval_ref_typeE, symObjAddr: 0xCBAC, symBinAddr: 0x10000E244, symSize: 0x3C }
  - { offset: 0x16A6E, size: 0x8, addend: 0x0, symName: __ZNSt3__116allocator_traitsINS_9allocatorINS_11__tree_nodeINS_12__value_typeINS_4pairINS_12basic_stringIcNS_11char_traitsIcEENS1_IcEEEES9_EEiEEPvEEEEE9constructB8ne180100INS4_IKSA_iEEJRKNS_21piecewise_construct_tENS_5tupleIJOSA_EEENSM_IJEEEEvEEvRSE_PT_DpOT0_, symObjAddr: 0xCBE8, symBinAddr: 0x10000E280, symSize: 0x44 }
  - { offset: 0x16AED, size: 0x8, addend: 0x0, symName: __ZNKSt3__110unique_ptrINS_11__tree_nodeINS_12__value_typeINS_4pairINS_12basic_stringIcNS_11char_traitsIcEENS_9allocatorIcEEEES9_EEiEEPvEENS_22__tree_node_destructorINS7_ISD_EEEEEptB8ne180100Ev, symObjAddr: 0xCC2C, symBinAddr: 0x10000E2C4, symSize: 0x28 }
  - { offset: 0x16B13, size: 0x8, addend: 0x0, symName: __ZNSt3__110unique_ptrINS_11__tree_nodeINS_12__value_typeINS_4pairINS_12basic_stringIcNS_11char_traitsIcEENS_9allocatorIcEEEES9_EEiEEPvEENS_22__tree_node_destructorINS7_ISD_EEEEE11get_deleterB8ne180100Ev, symObjAddr: 0xCC54, symBinAddr: 0x10000E2EC, symSize: 0x24 }
  - { offset: 0x16B39, size: 0x8, addend: 0x0, symName: __ZNSt3__19allocatorINS_11__tree_nodeINS_12__value_typeINS_4pairINS_12basic_stringIcNS_11char_traitsIcEENS0_IcEEEES8_EEiEEPvEEE8allocateB8ne180100Em, symObjAddr: 0xCC78, symBinAddr: 0x10000E310, symSize: 0x5C }
  - { offset: 0x16B77, size: 0x8, addend: 0x0, symName: __ZNSt3__116allocator_traitsINS_9allocatorINS_11__tree_nodeINS_12__value_typeINS_4pairINS_12basic_stringIcNS_11char_traitsIcEENS1_IcEEEES9_EEiEEPvEEEEE8max_sizeB8ne180100ISE_vEEmRKSE_, symObjAddr: 0xCCD4, symBinAddr: 0x10000E36C, symSize: 0x24 }
  - { offset: 0x16BA5, size: 0x8, addend: 0x0, symName: __ZNKSt3__19allocatorINS_11__tree_nodeINS_12__value_typeINS_4pairINS_12basic_stringIcNS_11char_traitsIcEENS0_IcEEEES8_EEiEEPvEEE8max_sizeB8ne180100Ev, symObjAddr: 0xCCF8, symBinAddr: 0x10000E390, symSize: 0x20 }
  - { offset: 0x16BCB, size: 0x8, addend: 0x0, symName: __ZNSt3__122__tree_node_destructorINS_9allocatorINS_11__tree_nodeINS_12__value_typeINS_4pairINS_12basic_stringIcNS_11char_traitsIcEENS1_IcEEEES9_EEiEEPvEEEEEC2B8ne180100ERSE_b, symObjAddr: 0xCD18, symBinAddr: 0x10000E3B0, symSize: 0x38 }
  - { offset: 0x16C13, size: 0x8, addend: 0x0, symName: __ZNSt3__110unique_ptrINS_11__tree_nodeINS_12__value_typeINS_4pairINS_12basic_stringIcNS_11char_traitsIcEENS_9allocatorIcEEEES9_EEiEEPvEENS_22__tree_node_destructorINS7_ISD_EEEEEC2B8ne180100ILb1EvEEPSD_NS_16__dependent_typeINS_27__unique_ptr_deleter_sfinaeISG_EEXT_EE20__good_rval_ref_typeE, symObjAddr: 0xCD50, symBinAddr: 0x10000E3E8, symSize: 0x48 }
  - { offset: 0x16C64, size: 0x8, addend: 0x0, symName: __ZNSt3__117__compressed_pairIPNS_11__tree_nodeINS_12__value_typeINS_4pairINS_12basic_stringIcNS_11char_traitsIcEENS_9allocatorIcEEEES9_EEiEEPvEENS_22__tree_node_destructorINS7_ISD_EEEEEC1B8ne180100IRSE_SH_EEOT_OT0_, symObjAddr: 0xCD98, symBinAddr: 0x10000E430, symSize: 0x3C }
  - { offset: 0x16CBC, size: 0x8, addend: 0x0, symName: __ZNSt3__117__compressed_pairIPNS_11__tree_nodeINS_12__value_typeINS_4pairINS_12basic_stringIcNS_11char_traitsIcEENS_9allocatorIcEEEES9_EEiEEPvEENS_22__tree_node_destructorINS7_ISD_EEEEEC2B8ne180100IRSE_SH_EEOT_OT0_, symObjAddr: 0xCDD4, symBinAddr: 0x10000E46C, symSize: 0x48 }
  - { offset: 0x16D14, size: 0x8, addend: 0x0, symName: __ZNSt3__122__compressed_pair_elemIPNS_11__tree_nodeINS_12__value_typeINS_4pairINS_12basic_stringIcNS_11char_traitsIcEENS_9allocatorIcEEEES9_EEiEEPvEELi0ELb0EEC2B8ne180100IRSE_vEEOT_, symObjAddr: 0xCE1C, symBinAddr: 0x10000E4B4, symSize: 0x24 }
  - { offset: 0x16D56, size: 0x8, addend: 0x0, symName: __ZNSt3__122__compressed_pair_elemINS_22__tree_node_destructorINS_9allocatorINS_11__tree_nodeINS_12__value_typeINS_4pairINS_12basic_stringIcNS_11char_traitsIcEENS2_IcEEEESA_EEiEEPvEEEEEELi1ELb0EEC2B8ne180100ISG_vEEOT_, symObjAddr: 0xCE40, symBinAddr: 0x10000E4D8, symSize: 0x24 }
  - { offset: 0x16D98, size: 0x8, addend: 0x0, symName: __ZNSt3__19allocatorINS_11__tree_nodeINS_12__value_typeINS_4pairINS_12basic_stringIcNS_11char_traitsIcEENS0_IcEEEES8_EEiEEPvEEE9constructB8ne180100INS3_IKS9_iEEJRKNS_21piecewise_construct_tENS_5tupleIJOS9_EEENSK_IJEEEEEEvPT_DpOT0_, symObjAddr: 0xCE64, symBinAddr: 0x10000E4FC, symSize: 0x44 }
  - { offset: 0x16E14, size: 0x8, addend: 0x0, symName: __ZNSt3__14pairIKNS0_INS_12basic_stringIcNS_11char_traitsIcEENS_9allocatorIcEEEES6_EEiEC1B8ne180100IJOS7_EJEEENS_21piecewise_construct_tENS_5tupleIJDpT_EEENSD_IJDpT0_EEE, symObjAddr: 0xCEA8, symBinAddr: 0x10000E540, symSize: 0x44 }
  - { offset: 0x16E7B, size: 0x8, addend: 0x0, symName: __ZNSt3__14pairIKNS0_INS_12basic_stringIcNS_11char_traitsIcEENS_9allocatorIcEEEES6_EEiEC1B8ne180100IJOS7_EJEJLm0EEJEEENS_21piecewise_construct_tERNS_5tupleIJDpT_EEERNSD_IJDpT0_EEENS_15__tuple_indicesIJXspT1_EEEENSM_IJXspT2_EEEE, symObjAddr: 0xCEEC, symBinAddr: 0x10000E584, symSize: 0x3C }
  - { offset: 0x16F0B, size: 0x8, addend: 0x0, symName: __ZNSt3__14pairIKNS0_INS_12basic_stringIcNS_11char_traitsIcEENS_9allocatorIcEEEES6_EEiEC2B8ne180100IJOS7_EJEJLm0EEJEEENS_21piecewise_construct_tERNS_5tupleIJDpT_EEERNSD_IJDpT0_EEENS_15__tuple_indicesIJXspT1_EEEENSM_IJXspT2_EEEE, symObjAddr: 0xCF28, symBinAddr: 0x10000E5C0, symSize: 0x48 }
  - { offset: 0x16F9B, size: 0x8, addend: 0x0, symName: __ZNSt3__14pairINS_12basic_stringIcNS_11char_traitsIcEENS_9allocatorIcEEEES6_EC1B8ne180100EOS7_, symObjAddr: 0xCF94, symBinAddr: 0x10000E62C, symSize: 0x34 }
  - { offset: 0x16FCF, size: 0x8, addend: 0x0, symName: __ZNSt3__112__tuple_leafILm0EONS_4pairINS_12basic_stringIcNS_11char_traitsIcEENS_9allocatorIcEEEES7_EELb0EE3getB8ne180100Ev, symObjAddr: 0xCFC8, symBinAddr: 0x10000E660, symSize: 0x18 }
  - { offset: 0x16FF5, size: 0x8, addend: 0x0, symName: __ZNSt3__14pairINS_12basic_stringIcNS_11char_traitsIcEENS_9allocatorIcEEEES6_EC2B8ne180100EOS7_, symObjAddr: 0xCFE0, symBinAddr: 0x10000E678, symSize: 0x48 }
  - { offset: 0x17029, size: 0x8, addend: 0x0, symName: __ZNSt3__112basic_stringIcNS_11char_traitsIcEENS_9allocatorIcEEEC1B8ne180100EOS5_, symObjAddr: 0xD028, symBinAddr: 0x10000E6C0, symSize: 0x34 }
  - { offset: 0x17062, size: 0x8, addend: 0x0, symName: __ZNSt3__112basic_stringIcNS_11char_traitsIcEENS_9allocatorIcEEEC2B8ne180100EOS5_, symObjAddr: 0xD05C, symBinAddr: 0x10000E6F4, symSize: 0xB8 }
  - { offset: 0x170CB, size: 0x8, addend: 0x0, symName: __ZZNSt3__112basic_stringIcNS_11char_traitsIcEENS_9allocatorIcEEEC1B8ne180100EOS5_ENKUlRS5_E_clES7_, symObjAddr: 0xD114, symBinAddr: 0x10000E7AC, symSize: 0x40 }
  - { offset: 0x17104, size: 0x8, addend: 0x0, symName: __ZNSt3__117__compressed_pairINS_12basic_stringIcNS_11char_traitsIcEENS_9allocatorIcEEE5__repES5_E5firstB8ne180100Ev, symObjAddr: 0xD154, symBinAddr: 0x10000E7EC, symSize: 0x24 }
  - { offset: 0x1712A, size: 0x8, addend: 0x0, symName: __ZNKSt3__112basic_stringIcNS_11char_traitsIcEENS_9allocatorIcEEE14__annotate_newB8ne180100Em, symObjAddr: 0xD178, symBinAddr: 0x10000E810, symSize: 0x14 }
  - { offset: 0x1715F, size: 0x8, addend: 0x0, symName: __ZNKSt3__112basic_stringIcNS_11char_traitsIcEENS_9allocatorIcEEE17__annotate_deleteB8ne180100Ev, symObjAddr: 0xD18C, symBinAddr: 0x10000E824, symSize: 0x10 }
  - { offset: 0x17185, size: 0x8, addend: 0x0, symName: __ZNSt3__122__compressed_pair_elemINS_12basic_stringIcNS_11char_traitsIcEENS_9allocatorIcEEE5__repELi0ELb0EE5__getB8ne180100Ev, symObjAddr: 0xD19C, symBinAddr: 0x10000E834, symSize: 0x14 }
  - { offset: 0x171AB, size: 0x8, addend: 0x0, symName: __ZNKSt3__117__compressed_pairIPNS_11__tree_nodeINS_12__value_typeINS_4pairINS_12basic_stringIcNS_11char_traitsIcEENS_9allocatorIcEEEES9_EEiEEPvEENS_22__tree_node_destructorINS7_ISD_EEEEE5firstB8ne180100Ev, symObjAddr: 0xD1B0, symBinAddr: 0x10000E848, symSize: 0x24 }
  - { offset: 0x171D1, size: 0x8, addend: 0x0, symName: __ZNKSt3__122__compressed_pair_elemIPNS_11__tree_nodeINS_12__value_typeINS_4pairINS_12basic_stringIcNS_11char_traitsIcEENS_9allocatorIcEEEES9_EEiEEPvEELi0ELb0EE5__getB8ne180100Ev, symObjAddr: 0xD1D4, symBinAddr: 0x10000E86C, symSize: 0x14 }
  - { offset: 0x171F7, size: 0x8, addend: 0x0, symName: __ZNSt3__117__compressed_pairIPNS_11__tree_nodeINS_12__value_typeINS_4pairINS_12basic_stringIcNS_11char_traitsIcEENS_9allocatorIcEEEES9_EEiEEPvEENS_22__tree_node_destructorINS7_ISD_EEEEE6secondB8ne180100Ev, symObjAddr: 0xD1E8, symBinAddr: 0x10000E880, symSize: 0x28 }
  - { offset: 0x1721D, size: 0x8, addend: 0x0, symName: __ZNSt3__122__compressed_pair_elemINS_22__tree_node_destructorINS_9allocatorINS_11__tree_nodeINS_12__value_typeINS_4pairINS_12basic_stringIcNS_11char_traitsIcEENS2_IcEEEESA_EEiEEPvEEEEEELi1ELb0EE5__getB8ne180100Ev, symObjAddr: 0xD210, symBinAddr: 0x10000E8A8, symSize: 0x14 }
  - { offset: 0x17243, size: 0x8, addend: 0x0, symName: __ZNSt3__16__treeINS_12__value_typeINS_4pairINS_12basic_stringIcNS_11char_traitsIcEENS_9allocatorIcEEEES8_EEiEENS_19__map_value_compareIS9_SA_NS_4lessIS9_EELb1EEENS6_ISA_EEE4sizeB8ne180100Ev, symObjAddr: 0xD550, symBinAddr: 0x10000EBE8, symSize: 0x28 }
  - { offset: 0x17269, size: 0x8, addend: 0x0, symName: __ZNKSt3__116__tree_node_baseIPvE15__parent_unsafeB8ne180100Ev, symObjAddr: 0xD578, symBinAddr: 0x10000EC10, symSize: 0x18 }
  - { offset: 0x1728F, size: 0x8, addend: 0x0, symName: __ZNSt3__116__tree_node_baseIPvE12__set_parentB8ne180100EPS2_, symObjAddr: 0xD760, symBinAddr: 0x10000EDF8, symSize: 0x20 }
  - { offset: 0x172C4, size: 0x8, addend: 0x0, symName: __ZNSt3__117__compressed_pairImNS_19__map_value_compareINS_4pairINS_12basic_stringIcNS_11char_traitsIcEENS_9allocatorIcEEEES8_EENS_12__value_typeIS9_iEENS_4lessIS9_EELb1EEEE5firstB8ne180100Ev, symObjAddr: 0xD780, symBinAddr: 0x10000EE18, symSize: 0x24 }
  - { offset: 0x172EA, size: 0x8, addend: 0x0, symName: __ZNSt3__117__compressed_pairIPNS_11__tree_nodeINS_12__value_typeINS_4pairINS_12basic_stringIcNS_11char_traitsIcEENS_9allocatorIcEEEES9_EEiEEPvEENS_22__tree_node_destructorINS7_ISD_EEEEE5firstB8ne180100Ev, symObjAddr: 0xD7A4, symBinAddr: 0x10000EE3C, symSize: 0x24 }
  - { offset: 0x17310, size: 0x8, addend: 0x0, symName: __ZNSt3__122__compressed_pair_elemIPNS_11__tree_nodeINS_12__value_typeINS_4pairINS_12basic_stringIcNS_11char_traitsIcEENS_9allocatorIcEEEES9_EEiEEPvEELi0ELb0EE5__getB8ne180100Ev, symObjAddr: 0xD7C8, symBinAddr: 0x10000EE60, symSize: 0x14 }
  - { offset: 0x17336, size: 0x8, addend: 0x0, symName: __ZNSt3__110unique_ptrINS_11__tree_nodeINS_12__value_typeINS_4pairINS_12basic_stringIcNS_11char_traitsIcEENS_9allocatorIcEEEES9_EEiEEPvEENS_22__tree_node_destructorINS7_ISD_EEEEED2B8ne180100Ev, symObjAddr: 0xD7DC, symBinAddr: 0x10000EE74, symSize: 0x30 }
  - { offset: 0x17360, size: 0x8, addend: 0x0, symName: __ZNSt3__110unique_ptrINS_11__tree_nodeINS_12__value_typeINS_4pairINS_12basic_stringIcNS_11char_traitsIcEENS_9allocatorIcEEEES9_EEiEEPvEENS_22__tree_node_destructorINS7_ISD_EEEEE5resetB8ne180100EPSD_, symObjAddr: 0xD80C, symBinAddr: 0x10000EEA4, symSize: 0x78 }
  - { offset: 0x173A4, size: 0x8, addend: 0x0, symName: __ZNSt3__122__tree_node_destructorINS_9allocatorINS_11__tree_nodeINS_12__value_typeINS_4pairINS_12basic_stringIcNS_11char_traitsIcEENS1_IcEEEES9_EEiEEPvEEEEEclB8ne180100EPSD_, symObjAddr: 0xD884, symBinAddr: 0x10000EF1C, symSize: 0x98 }
  - { offset: 0x173D9, size: 0x8, addend: 0x0, symName: __ZNSt3__115__tree_iteratorINS_12__value_typeINS_4pairINS_12basic_stringIcNS_11char_traitsIcEENS_9allocatorIcEEEES8_EEiEEPNS_11__tree_nodeISA_PvEElEC2B8ne180100ESE_, symObjAddr: 0xD91C, symBinAddr: 0x10000EFB4, symSize: 0x20 }
  - { offset: 0x17412, size: 0x8, addend: 0x0, symName: __ZNSt3__14pairINS_15__tree_iteratorINS_12__value_typeINS0_INS_12basic_stringIcNS_11char_traitsIcEENS_9allocatorIcEEEES8_EEiEEPNS_11__tree_nodeISA_PvEElEEbEC2B8ne180100ISF_RbLi0EEEOT_OT0_, symObjAddr: 0xD93C, symBinAddr: 0x10000EFD4, symSize: 0x38 }
  - { offset: 0x17470, size: 0x8, addend: 0x0, symName: __ZNSt3__15tupleIJONS_4pairINS_12basic_stringIcNS_11char_traitsIcEENS_9allocatorIcEEEES7_EEEEC1B8ne180100IJS8_ELi0EEEDpOT_, symObjAddr: 0xD974, symBinAddr: 0x10000F00C, symSize: 0x34 }
  - { offset: 0x174BA, size: 0x8, addend: 0x0, symName: __ZNSt3__15tupleIJONS_4pairINS_12basic_stringIcNS_11char_traitsIcEENS_9allocatorIcEEEES7_EEEEC2B8ne180100IJS8_ELi0EEEDpOT_, symObjAddr: 0xD9A8, symBinAddr: 0x10000F040, symSize: 0x34 }
  - { offset: 0x17504, size: 0x8, addend: 0x0, symName: __ZNSt3__112__tuple_implINS_15__tuple_indicesIJLm0EEEEJONS_4pairINS_12basic_stringIcNS_11char_traitsIcEENS_9allocatorIcEEEES9_EEEEC1B8ne180100IJLm0EEJSB_EJEJEJSA_EEENS1_IJXspT_EEEENS_13__tuple_typesIJDpT0_EEENS1_IJXspT1_EEEENSF_IJDpT2_EEEDpOT3_, symObjAddr: 0xD9DC, symBinAddr: 0x10000F074, symSize: 0x34 }
  - { offset: 0x17599, size: 0x8, addend: 0x0, symName: __ZNSt3__112__tuple_implINS_15__tuple_indicesIJLm0EEEEJONS_4pairINS_12basic_stringIcNS_11char_traitsIcEENS_9allocatorIcEEEES9_EEEEC2B8ne180100IJLm0EEJSB_EJEJEJSA_EEENS1_IJXspT_EEEENS_13__tuple_typesIJDpT0_EEENS1_IJXspT1_EEEENSF_IJDpT2_EEEDpOT3_, symObjAddr: 0xDA10, symBinAddr: 0x10000F0A8, symSize: 0x34 }
  - { offset: 0x1762E, size: 0x8, addend: 0x0, symName: __ZNSt3__112__tuple_leafILm0EONS_4pairINS_12basic_stringIcNS_11char_traitsIcEENS_9allocatorIcEEEES7_EELb0EEC2B8ne180100IS8_vEEOT_, symObjAddr: 0xDA44, symBinAddr: 0x10000F0DC, symSize: 0x20 }
  - { offset: 0x17671, size: 0x8, addend: 0x0, symName: __ZNSt3__114pointer_traitsIPNS_12__value_typeINS_4pairINS_12basic_stringIcNS_11char_traitsIcEENS_9allocatorIcEEEES8_EEiEEE10pointer_toB8ne180100ERSA_, symObjAddr: 0xDA64, symBinAddr: 0x10000F0FC, symSize: 0x14 }
  - { offset: 0x17694, size: 0x8, addend: 0x0, symName: __ZNKSt3__115__tree_iteratorINS_12__value_typeINS_4pairINS_12basic_stringIcNS_11char_traitsIcEENS_9allocatorIcEEEES8_EEiEEPNS_11__tree_nodeISA_PvEElE8__get_npB8ne180100Ev, symObjAddr: 0xDA78, symBinAddr: 0x10000F110, symSize: 0x18 }
  - { offset: 0x176BA, size: 0x8, addend: 0x0, symName: __ZNSt3__15stackINS_12basic_stringIcNS_11char_traitsIcEENS_9allocatorIcEEEENS_5dequeIS6_NS4_IS6_EEEEEC2B8ne180100Ev, symObjAddr: 0xDA90, symBinAddr: 0x10000F128, symSize: 0x2C }
  - { offset: 0x176E4, size: 0x8, addend: 0x0, symName: __ZNSt3__15dequeINS_12basic_stringIcNS_11char_traitsIcEENS_9allocatorIcEEEENS4_IS6_EEEC1B8ne180100Ev, symObjAddr: 0xDABC, symBinAddr: 0x10000F154, symSize: 0x2C }
  - { offset: 0x1770E, size: 0x8, addend: 0x0, symName: __ZNSt3__15dequeINS_12basic_stringIcNS_11char_traitsIcEENS_9allocatorIcEEEENS4_IS6_EEEC2B8ne180100Ev, symObjAddr: 0xDAE8, symBinAddr: 0x10000F180, symSize: 0x5C }
  - { offset: 0x17738, size: 0x8, addend: 0x0, symName: __ZNSt3__114__split_bufferIPNS_12basic_stringIcNS_11char_traitsIcEENS_9allocatorIcEEEENS4_IS7_EEEC1B8ne180100Ev, symObjAddr: 0xDB44, symBinAddr: 0x10000F1DC, symSize: 0x2C }
  - { offset: 0x17762, size: 0x8, addend: 0x0, symName: __ZNSt3__117__compressed_pairImNS_9allocatorINS_12basic_stringIcNS_11char_traitsIcEENS1_IcEEEEEEEC1B8ne180100IiNS_18__default_init_tagEEEOT_OT0_, symObjAddr: 0xDB70, symBinAddr: 0x10000F208, symSize: 0x3C }
  - { offset: 0x177BA, size: 0x8, addend: 0x0, symName: __ZNSt3__114__split_bufferIPNS_12basic_stringIcNS_11char_traitsIcEENS_9allocatorIcEEEENS4_IS7_EEEC2B8ne180100Ev, symObjAddr: 0xDBAC, symBinAddr: 0x10000F244, symSize: 0x50 }
  - { offset: 0x177E4, size: 0x8, addend: 0x0, symName: __ZNSt3__117__compressed_pairIPPNS_12basic_stringIcNS_11char_traitsIcEENS_9allocatorIcEEEENS4_IS7_EEEC1B8ne180100IDnNS_18__default_init_tagEEEOT_OT0_, symObjAddr: 0xDBFC, symBinAddr: 0x10000F294, symSize: 0x3C }
  - { offset: 0x1783C, size: 0x8, addend: 0x0, symName: __ZNSt3__117__compressed_pairIPPNS_12basic_stringIcNS_11char_traitsIcEENS_9allocatorIcEEEENS4_IS7_EEEC2B8ne180100IDnNS_18__default_init_tagEEEOT_OT0_, symObjAddr: 0xDC38, symBinAddr: 0x10000F2D0, symSize: 0x40 }
  - { offset: 0x17894, size: 0x8, addend: 0x0, symName: __ZNSt3__122__compressed_pair_elemIPPNS_12basic_stringIcNS_11char_traitsIcEENS_9allocatorIcEEEELi0ELb0EEC2B8ne180100IDnvEEOT_, symObjAddr: 0xDC78, symBinAddr: 0x10000F310, symSize: 0x1C }
  - { offset: 0x178D6, size: 0x8, addend: 0x0, symName: __ZNSt3__122__compressed_pair_elemINS_9allocatorIPNS_12basic_stringIcNS_11char_traitsIcEENS1_IcEEEEEELi1ELb1EEC2B8ne180100ENS_18__default_init_tagE, symObjAddr: 0xDC94, symBinAddr: 0x10000F32C, symSize: 0x2C }
  - { offset: 0x1790A, size: 0x8, addend: 0x0, symName: __ZNSt3__19allocatorIPNS_12basic_stringIcNS_11char_traitsIcEENS0_IcEEEEEC2B8ne180100Ev, symObjAddr: 0xDCC0, symBinAddr: 0x10000F358, symSize: 0x2C }
  - { offset: 0x17934, size: 0x8, addend: 0x0, symName: __ZNSt3__116__non_trivial_ifILb1ENS_9allocatorIPNS_12basic_stringIcNS_11char_traitsIcEENS1_IcEEEEEEEC2B8ne180100Ev, symObjAddr: 0xDCEC, symBinAddr: 0x10000F384, symSize: 0x14 }
  - { offset: 0x1795E, size: 0x8, addend: 0x0, symName: __ZNSt3__117__compressed_pairImNS_9allocatorINS_12basic_stringIcNS_11char_traitsIcEENS1_IcEEEEEEEC2B8ne180100IiNS_18__default_init_tagEEEOT_OT0_, symObjAddr: 0xDD00, symBinAddr: 0x10000F398, symSize: 0x40 }
  - { offset: 0x179B6, size: 0x8, addend: 0x0, symName: __ZNSt3__16vectorINS_12basic_stringIcNS_11char_traitsIcEENS_9allocatorIcEEEENS4_IS6_EEEC2B8ne180100Ev, symObjAddr: 0xDD40, symBinAddr: 0x10000F3D8, symSize: 0x4C }
  - { offset: 0x179E0, size: 0x8, addend: 0x0, symName: __ZNKSt3__16vectorI10ProductionNS_9allocatorIS1_EEE4sizeB8ne180100Ev, symObjAddr: 0xDD8C, symBinAddr: 0x10000F424, symSize: 0x28 }
  - { offset: 0x17A06, size: 0x8, addend: 0x0, symName: __ZNKSt3__16vectorI10ProductionNS_9allocatorIS1_EEE20__throw_out_of_rangeB8ne180100Ev, symObjAddr: 0xDDB4, symBinAddr: 0x10000F44C, symSize: 0x1C }
  - { offset: 0x17A2C, size: 0x8, addend: 0x0, symName: __ZNSt12out_of_rangeC1B8ne180100EPKc, symObjAddr: 0xDE34, symBinAddr: 0x10000F4CC, symSize: 0x34 }
  - { offset: 0x17A64, size: 0x8, addend: 0x0, symName: __ZNSt12out_of_rangeC2B8ne180100EPKc, symObjAddr: 0xDE68, symBinAddr: 0x10000F500, symSize: 0x44 }
  - { offset: 0x17A9C, size: 0x8, addend: 0x0, symName: __ZNSt3__16vectorINS_12basic_stringIcNS_11char_traitsIcEENS_9allocatorIcEEEENS4_IS6_EEEC2ERKS8_, symObjAddr: 0xDEAC, symBinAddr: 0x10000F544, symSize: 0x94 }
  - { offset: 0x17AD7, size: 0x8, addend: 0x0, symName: __ZNSt3__116allocator_traitsINS_9allocatorINS_12basic_stringIcNS_11char_traitsIcEENS1_IcEEEEEEE37select_on_container_copy_constructionB8ne180100IS7_vvEES7_RKS7_, symObjAddr: 0xDF40, symBinAddr: 0x10000F5D8, symSize: 0x10 }
  - { offset: 0x17B0B, size: 0x8, addend: 0x0, symName: __ZNSt3__117__compressed_pairIPNS_12basic_stringIcNS_11char_traitsIcEENS_9allocatorIcEEEENS4_IS6_EEEC1B8ne180100IDnS8_EEOT_OT0_, symObjAddr: 0xDF50, symBinAddr: 0x10000F5E8, symSize: 0x3C }
  - { offset: 0x17B63, size: 0x8, addend: 0x0, symName: __ZNSt3__16vectorINS_12basic_stringIcNS_11char_traitsIcEENS_9allocatorIcEEEENS4_IS6_EEE16__init_with_sizeB8ne180100IPS6_SA_EEvT_T0_m, symObjAddr: 0xDF8C, symBinAddr: 0x10000F624, symSize: 0xB8 }
  - { offset: 0x17BD7, size: 0x8, addend: 0x0, symName: __ZNSt3__117__compressed_pairIPNS_12basic_stringIcNS_11char_traitsIcEENS_9allocatorIcEEEENS4_IS6_EEEC2B8ne180100IDnS8_EEOT_OT0_, symObjAddr: 0xE044, symBinAddr: 0x10000F6DC, symSize: 0x44 }
  - { offset: 0x17C2F, size: 0x8, addend: 0x0, symName: __ZNSt3__122__compressed_pair_elemINS_9allocatorINS_12basic_stringIcNS_11char_traitsIcEENS1_IcEEEEEELi1ELb1EEC2B8ne180100IS7_vEEOT_, symObjAddr: 0xE088, symBinAddr: 0x10000F720, symSize: 0x18 }
  - { offset: 0x17C71, size: 0x8, addend: 0x0, symName: __ZNSt3__16vectorINS_12basic_stringIcNS_11char_traitsIcEENS_9allocatorIcEEEENS4_IS6_EEE18__construct_at_endIPS6_SA_EEvT_T0_m, symObjAddr: 0xE0A0, symBinAddr: 0x10000F738, symSize: 0x8C }
  - { offset: 0x17D00, size: 0x8, addend: 0x0, symName: __ZNSt3__14pairIPNS_12basic_stringIcNS_11char_traitsIcEENS_9allocatorIcEEEES7_EC1B8ne180100IS7_S7_Li0EEEOT_OT0_, symObjAddr: 0xE338, symBinAddr: 0x10000F9D0, symSize: 0x3C }
  - { offset: 0x17D5E, size: 0x8, addend: 0x0, symName: __ZNSt3__14pairIPNS_12basic_stringIcNS_11char_traitsIcEENS_9allocatorIcEEEES7_EC2B8ne180100IS7_S7_Li0EEEOT_OT0_, symObjAddr: 0xE374, symBinAddr: 0x10000FA0C, symSize: 0x34 }
  - { offset: 0x17DBC, size: 0x8, addend: 0x0, symName: __ZNSt3__116allocator_traitsINS_9allocatorINS_12basic_stringIcNS_11char_traitsIcEENS1_IcEEEEEEE9constructB8ne180100IS6_JRS6_EvEEvRS7_PT_DpOT0_, symObjAddr: 0xE3A8, symBinAddr: 0x10000FA40, symSize: 0x34 }
  - { offset: 0x17E13, size: 0x8, addend: 0x0, symName: __ZNSt3__19allocatorINS_12basic_stringIcNS_11char_traitsIcEENS0_IcEEEEE9constructB8ne180100IS5_JRS5_EEEvPT_DpOT0_, symObjAddr: 0xE3DC, symBinAddr: 0x10000FA74, symSize: 0x30 }
  - { offset: 0x17E69, size: 0x8, addend: 0x0, symName: __ZNSt3__15dequeINS_12basic_stringIcNS_11char_traitsIcEENS_9allocatorIcEEEENS4_IS6_EEE9push_backERKS6_, symObjAddr: 0xE40C, symBinAddr: 0x10000FAA4, symSize: 0xAC }
  - { offset: 0x17EAF, size: 0x8, addend: 0x0, symName: __ZNKSt3__15dequeINS_12basic_stringIcNS_11char_traitsIcEENS_9allocatorIcEEEENS4_IS6_EEE12__back_spareB8ne180100Ev, symObjAddr: 0xE4B8, symBinAddr: 0x10000FB50, symSize: 0x54 }
  - { offset: 0x17ED5, size: 0x8, addend: 0x0, symName: __ZNSt3__15dequeINS_12basic_stringIcNS_11char_traitsIcEENS_9allocatorIcEEEENS4_IS6_EEE19__add_back_capacityEv, symObjAddr: 0xE50C, symBinAddr: 0x10000FBA4, symSize: 0x34C }
  - { offset: 0x17F8A, size: 0x8, addend: 0x0, symName: __ZNKSt3__15dequeINS_12basic_stringIcNS_11char_traitsIcEENS_9allocatorIcEEEENS4_IS6_EEE24__annotate_increase_backB8ne180100Em, symObjAddr: 0xE858, symBinAddr: 0x10000FEF0, symSize: 0x14 }
  - { offset: 0x17FBF, size: 0x8, addend: 0x0, symName: __ZNKSt3__15dequeINS_12basic_stringIcNS_11char_traitsIcEENS_9allocatorIcEEEENS4_IS6_EEE10__capacityB8ne180100Ev, symObjAddr: 0xE86C, symBinAddr: 0x10000FF04, symSize: 0x64 }
  - { offset: 0x17FE5, size: 0x8, addend: 0x0, symName: __ZNKSt3__15dequeINS_12basic_stringIcNS_11char_traitsIcEENS_9allocatorIcEEEENS4_IS6_EEE13__front_spareB8ne180100Ev, symObjAddr: 0xE8D0, symBinAddr: 0x10000FF68, symSize: 0x18 }
  - { offset: 0x1800B, size: 0x8, addend: 0x0, symName: __ZNSt3__114__split_bufferIPNS_12basic_stringIcNS_11char_traitsIcEENS_9allocatorIcEEEENS4_IS7_EEE9push_backB8ne180100ERKS7_, symObjAddr: 0xE8E8, symBinAddr: 0x10000FF80, symSize: 0x260 }
  - { offset: 0x18083, size: 0x8, addend: 0x0, symName: __ZNKSt3__114__split_bufferIPNS_12basic_stringIcNS_11char_traitsIcEENS_9allocatorIcEEEENS4_IS7_EEE12__back_spareB8ne180100Ev, symObjAddr: 0xEB48, symBinAddr: 0x1000101E0, symSize: 0x40 }
  - { offset: 0x180A9, size: 0x8, addend: 0x0, symName: __ZNSt3__114__split_bufferIPNS_12basic_stringIcNS_11char_traitsIcEENS_9allocatorIcEEEENS4_IS7_EEE9push_backEOS7_, symObjAddr: 0xEB88, symBinAddr: 0x100010220, symSize: 0x260 }
  - { offset: 0x18121, size: 0x8, addend: 0x0, symName: __ZNSt3__116allocator_traitsINS_9allocatorINS_12basic_stringIcNS_11char_traitsIcEENS1_IcEEEEEEE8allocateB8ne180100ERS7_m, symObjAddr: 0xEDE8, symBinAddr: 0x100010480, symSize: 0x2C }
  - { offset: 0x18154, size: 0x8, addend: 0x0, symName: __ZNSt3__114__split_bufferIPNS_12basic_stringIcNS_11char_traitsIcEENS_9allocatorIcEEEENS4_IS7_EEE10push_frontEOS7_, symObjAddr: 0xEE14, symBinAddr: 0x1000104AC, symSize: 0x25C }
  - { offset: 0x181CC, size: 0x8, addend: 0x0, symName: __ZNKSt3__15dequeINS_12basic_stringIcNS_11char_traitsIcEENS_9allocatorIcEEEENS4_IS6_EEE22__annotate_whole_blockB8ne180100EmNS8_22__asan_annotation_typeE, symObjAddr: 0xF070, symBinAddr: 0x100010708, symSize: 0x18 }
  - { offset: 0x18210, size: 0x8, addend: 0x0, symName: __ZNSt3__114__split_bufferIPNS_12basic_stringIcNS_11char_traitsIcEENS_9allocatorIcEEEERNS4_IS7_EEEC1EmmS9_, symObjAddr: 0xF0B4, symBinAddr: 0x10001074C, symSize: 0x44 }
  - { offset: 0x1826B, size: 0x8, addend: 0x0, symName: __ZNSt3__122__allocator_destructorINS_9allocatorINS_12basic_stringIcNS_11char_traitsIcEENS1_IcEEEEEEEC1B8ne180100ERS7_m, symObjAddr: 0xF0F8, symBinAddr: 0x100010790, symSize: 0x3C }
  - { offset: 0x1831A, size: 0x8, addend: 0x0, symName: __ZNSt3__110unique_ptrIPNS_12basic_stringIcNS_11char_traitsIcEENS_9allocatorIcEEEENS_22__allocator_destructorINS4_IS6_EEEEEC1B8ne180100ILb1EvEES7_NS_16__dependent_typeINS_27__unique_ptr_deleter_sfinaeISA_EEXT_EE20__good_rval_ref_typeE, symObjAddr: 0xF134, symBinAddr: 0x1000107CC, symSize: 0x3C }
  - { offset: 0x1836B, size: 0x8, addend: 0x0, symName: __ZNSt3__114__split_bufferIPNS_12basic_stringIcNS_11char_traitsIcEENS_9allocatorIcEEEERNS4_IS7_EEE9push_backEOS7_, symObjAddr: 0xF170, symBinAddr: 0x100010808, symSize: 0x260 }
  - { offset: 0x183E3, size: 0x8, addend: 0x0, symName: __ZNKSt3__110unique_ptrIPNS_12basic_stringIcNS_11char_traitsIcEENS_9allocatorIcEEEENS_22__allocator_destructorINS4_IS6_EEEEE3getB8ne180100Ev, symObjAddr: 0xF3D0, symBinAddr: 0x100010A68, symSize: 0x28 }
  - { offset: 0x18409, size: 0x8, addend: 0x0, symName: __ZNSt3__110unique_ptrIPNS_12basic_stringIcNS_11char_traitsIcEENS_9allocatorIcEEEENS_22__allocator_destructorINS4_IS6_EEEEE7releaseB8ne180100Ev, symObjAddr: 0xF3F8, symBinAddr: 0x100010A90, symSize: 0x44 }
  - { offset: 0x1843E, size: 0x8, addend: 0x0, symName: __ZNSt3__114__split_bufferIPNS_12basic_stringIcNS_11char_traitsIcEENS_9allocatorIcEEEERNS4_IS7_EEE10push_frontERKS7_, symObjAddr: 0xF43C, symBinAddr: 0x100010AD4, symSize: 0x25C }
  - { offset: 0x184B6, size: 0x8, addend: 0x0, symName: __ZNSt3__114__split_bufferIPNS_12basic_stringIcNS_11char_traitsIcEENS_9allocatorIcEEEENS4_IS7_EEE9__end_capB8ne180100Ev, symObjAddr: 0xF6D4, symBinAddr: 0x100010D6C, symSize: 0x28 }
  - { offset: 0x184DC, size: 0x8, addend: 0x0, symName: __ZNSt3__114__split_bufferIPNS_12basic_stringIcNS_11char_traitsIcEENS_9allocatorIcEEEERNS4_IS7_EEE9__end_capB8ne180100Ev, symObjAddr: 0xF6FC, symBinAddr: 0x100010D94, symSize: 0x28 }
  - { offset: 0x18502, size: 0x8, addend: 0x0, symName: __ZNSt3__110unique_ptrIPNS_12basic_stringIcNS_11char_traitsIcEENS_9allocatorIcEEEENS_22__allocator_destructorINS4_IS6_EEEEED1B8ne180100Ev, symObjAddr: 0xF724, symBinAddr: 0x100010DBC, symSize: 0x2C }
  - { offset: 0x1852C, size: 0x8, addend: 0x0, symName: __ZNSt3__114__split_bufferIPNS_12basic_stringIcNS_11char_traitsIcEENS_9allocatorIcEEEERNS4_IS7_EEED1Ev, symObjAddr: 0xF750, symBinAddr: 0x100010DE8, symSize: 0x2C }
  - { offset: 0x18558, size: 0x8, addend: 0x0, symName: __ZNSt3__114__split_bufferIPNS_12basic_stringIcNS_11char_traitsIcEENS_9allocatorIcEEEERNS4_IS7_EEE18__construct_at_endINS_13move_iteratorIPS7_EELi0EEEvT_SF_, symObjAddr: 0xF7BC, symBinAddr: 0x100010E54, symSize: 0x60 }
  - { offset: 0x185AB, size: 0x8, addend: 0x0, symName: __ZNSt3__113move_iteratorIPPNS_12basic_stringIcNS_11char_traitsIcEENS_9allocatorIcEEEEEC1B8ne180100ES8_, symObjAddr: 0xF81C, symBinAddr: 0x100010EB4, symSize: 0x34 }
  - { offset: 0x185E8, size: 0x8, addend: 0x0, symName: __ZNSt3__116allocator_traitsINS_9allocatorIPNS_12basic_stringIcNS_11char_traitsIcEENS1_IcEEEEEEE9constructB8ne180100IS7_JRKS7_EvEEvRS8_PT_DpOT0_, symObjAddr: 0xF850, symBinAddr: 0x100010EE8, symSize: 0x34 }
  - { offset: 0x18662, size: 0x8, addend: 0x0, symName: __ZNKSt3__114__move_trivialclB8ne180100IPNS_12basic_stringIcNS_11char_traitsIcEENS_9allocatorIcEEEES8_Li0EEENS_4pairIPT_PT0_EESB_SB_SD_, symObjAddr: 0xFA20, symBinAddr: 0x1000110B8, symSize: 0x48 }
  - { offset: 0x186CF, size: 0x8, addend: 0x0, symName: __ZNSt3__14pairIPPNS_12basic_stringIcNS_11char_traitsIcEENS_9allocatorIcEEEES8_EC1B8ne180100IRS8_S8_Li0EEEOT_OT0_, symObjAddr: 0xFC48, symBinAddr: 0x1000112E0, symSize: 0x3C }
  - { offset: 0x1872D, size: 0x8, addend: 0x0, symName: __ZNSt3__14pairIPPNS_12basic_stringIcNS_11char_traitsIcEENS_9allocatorIcEEEES8_EC2B8ne180100IRS8_S8_Li0EEEOT_OT0_, symObjAddr: 0xFC84, symBinAddr: 0x10001131C, symSize: 0x34 }
  - { offset: 0x1878B, size: 0x8, addend: 0x0, symName: __ZNSt3__118__unwrap_iter_implIPPNS_12basic_stringIcNS_11char_traitsIcEENS_9allocatorIcEEEELb1EE8__unwrapB8ne180100ES8_, symObjAddr: 0xFCB8, symBinAddr: 0x100011350, symSize: 0x24 }
  - { offset: 0x187AE, size: 0x8, addend: 0x0, symName: __ZNSt3__14pairIPPNS_12basic_stringIcNS_11char_traitsIcEENS_9allocatorIcEEEES8_EC1B8ne180100IS8_S8_Li0EEEOT_OT0_, symObjAddr: 0xFCDC, symBinAddr: 0x100011374, symSize: 0x3C }
  - { offset: 0x1880C, size: 0x8, addend: 0x0, symName: __ZNSt3__14pairIPPNS_12basic_stringIcNS_11char_traitsIcEENS_9allocatorIcEEEES8_EC2B8ne180100IS8_S8_Li0EEEOT_OT0_, symObjAddr: 0xFD18, symBinAddr: 0x1000113B0, symSize: 0x34 }
  - { offset: 0x1886A, size: 0x8, addend: 0x0, symName: __ZNSt3__118__unwrap_iter_implIPPNS_12basic_stringIcNS_11char_traitsIcEENS_9allocatorIcEEEELb1EE8__rewrapB8ne180100ES8_S8_, symObjAddr: 0xFD4C, symBinAddr: 0x1000113E4, symSize: 0x50 }
  - { offset: 0x1889B, size: 0x8, addend: 0x0, symName: __ZNSt3__114__split_bufferIPNS_12basic_stringIcNS_11char_traitsIcEENS_9allocatorIcEEEERNS4_IS7_EEE28__construct_at_end_with_sizeINS_13move_iteratorIPS7_EEEEvT_m, symObjAddr: 0xFD9C, symBinAddr: 0x100011434, symSize: 0xDC }
  - { offset: 0x18901, size: 0x8, addend: 0x0, symName: __ZNSt3__114__split_bufferIPNS_12basic_stringIcNS_11char_traitsIcEENS_9allocatorIcEEEERNS4_IS7_EEE21_ConstructTransactionC1B8ne180100EPPS7_m, symObjAddr: 0xFEB4, symBinAddr: 0x10001154C, symSize: 0x3C }
  - { offset: 0x18947, size: 0x8, addend: 0x0, symName: __ZNSt3__116allocator_traitsINS_9allocatorIPNS_12basic_stringIcNS_11char_traitsIcEENS1_IcEEEEEEE9constructB8ne180100IS7_JS7_EvEEvRS8_PT_DpOT0_, symObjAddr: 0xFEF0, symBinAddr: 0x100011588, symSize: 0x34 }
  - { offset: 0x1899E, size: 0x8, addend: 0x0, symName: __ZNSt3__114__split_bufferIPNS_12basic_stringIcNS_11char_traitsIcEENS_9allocatorIcEEEERNS4_IS7_EEE7__allocB8ne180100Ev, symObjAddr: 0xFF24, symBinAddr: 0x1000115BC, symSize: 0x28 }
  - { offset: 0x189C4, size: 0x8, addend: 0x0, symName: __ZNKSt3__113move_iteratorIPPNS_12basic_stringIcNS_11char_traitsIcEENS_9allocatorIcEEEEEdeB8ne180100Ev, symObjAddr: 0xFF4C, symBinAddr: 0x1000115E4, symSize: 0x18 }
  - { offset: 0x189EA, size: 0x8, addend: 0x0, symName: __ZNSt3__113move_iteratorIPPNS_12basic_stringIcNS_11char_traitsIcEENS_9allocatorIcEEEEEppB8ne180100Ev, symObjAddr: 0xFF64, symBinAddr: 0x1000115FC, symSize: 0x20 }
  - { offset: 0x18A10, size: 0x8, addend: 0x0, symName: __ZNSt3__114__split_bufferIPNS_12basic_stringIcNS_11char_traitsIcEENS_9allocatorIcEEEERNS4_IS7_EEE21_ConstructTransactionD1B8ne180100Ev, symObjAddr: 0xFF84, symBinAddr: 0x10001161C, symSize: 0x2C }
  - { offset: 0x18A3A, size: 0x8, addend: 0x0, symName: __ZNSt3__114__split_bufferIPNS_12basic_stringIcNS_11char_traitsIcEENS_9allocatorIcEEEERNS4_IS7_EEE21_ConstructTransactionC2B8ne180100EPPS7_m, symObjAddr: 0xFFB0, symBinAddr: 0x100011648, symSize: 0x44 }
  - { offset: 0x18A80, size: 0x8, addend: 0x0, symName: __ZNSt3__19allocatorIPNS_12basic_stringIcNS_11char_traitsIcEENS0_IcEEEEE9constructB8ne180100IS6_JS6_EEEvPT_DpOT0_, symObjAddr: 0xFFF4, symBinAddr: 0x10001168C, symSize: 0x28 }
  - { offset: 0x18AD6, size: 0x8, addend: 0x0, symName: __ZNSt3__117__compressed_pairIPPNS_12basic_stringIcNS_11char_traitsIcEENS_9allocatorIcEEEERNS4_IS7_EEE6secondB8ne180100Ev, symObjAddr: 0x1001C, symBinAddr: 0x1000116B4, symSize: 0x28 }
  - { offset: 0x18AFC, size: 0x8, addend: 0x0, symName: __ZNSt3__122__compressed_pair_elemIRNS_9allocatorIPNS_12basic_stringIcNS_11char_traitsIcEENS1_IcEEEEEELi1ELb0EE5__getB8ne180100Ev, symObjAddr: 0x10044, symBinAddr: 0x1000116DC, symSize: 0x18 }
  - { offset: 0x18B22, size: 0x8, addend: 0x0, symName: __ZNSt3__114__split_bufferIPNS_12basic_stringIcNS_11char_traitsIcEENS_9allocatorIcEEEERNS4_IS7_EEE21_ConstructTransactionD2B8ne180100Ev, symObjAddr: 0x1005C, symBinAddr: 0x1000116F4, symSize: 0x20 }
  - { offset: 0x18B4C, size: 0x8, addend: 0x0, symName: __ZNKSt3__113move_iteratorIPPNS_12basic_stringIcNS_11char_traitsIcEENS_9allocatorIcEEEEE4baseB8ne180100Ev, symObjAddr: 0x100F4, symBinAddr: 0x10001178C, symSize: 0x18 }
  - { offset: 0x18B72, size: 0x8, addend: 0x0, symName: __ZNSt3__113move_iteratorIPPNS_12basic_stringIcNS_11char_traitsIcEENS_9allocatorIcEEEEEC2B8ne180100ES8_, symObjAddr: 0x1010C, symBinAddr: 0x1000117A4, symSize: 0x20 }
  - { offset: 0x18BAA, size: 0x8, addend: 0x0, symName: __ZNSt3__19allocatorIPNS_12basic_stringIcNS_11char_traitsIcEENS0_IcEEEEE9constructB8ne180100IS6_JRKS6_EEEvPT_DpOT0_, symObjAddr: 0x1012C, symBinAddr: 0x1000117C4, symSize: 0x28 }
  - { offset: 0x18C0A, size: 0x8, addend: 0x0, symName: __ZNKSt3__123__move_backward_trivialclB8ne180100IPNS_12basic_stringIcNS_11char_traitsIcEENS_9allocatorIcEEEES8_Li0EEENS_4pairIPT_PT0_EESB_SB_SD_, symObjAddr: 0x102D0, symBinAddr: 0x100011968, symSize: 0x48 }
  - { offset: 0x18C72, size: 0x8, addend: 0x0, symName: __ZNSt3__14pairIPPNS_12basic_stringIcNS_11char_traitsIcEENS_9allocatorIcEEEES8_EC1B8ne180100IRS8_SB_Li0EEEOT_OT0_, symObjAddr: 0x103E0, symBinAddr: 0x100011A78, symSize: 0x3C }
  - { offset: 0x18CD0, size: 0x8, addend: 0x0, symName: __ZNSt3__14pairIPPNS_12basic_stringIcNS_11char_traitsIcEENS_9allocatorIcEEEES8_EC2B8ne180100IRS8_SB_Li0EEEOT_OT0_, symObjAddr: 0x1041C, symBinAddr: 0x100011AB4, symSize: 0x34 }
  - { offset: 0x18D2E, size: 0x8, addend: 0x0, symName: __ZNSt3__114__split_bufferIPNS_12basic_stringIcNS_11char_traitsIcEENS_9allocatorIcEEEERNS4_IS7_EEEC2EmmS9_, symObjAddr: 0x104A4, symBinAddr: 0x100011B3C, symSize: 0xD4 }
  - { offset: 0x18DA1, size: 0x8, addend: 0x0, symName: __ZNSt3__117__compressed_pairIPPNS_12basic_stringIcNS_11char_traitsIcEENS_9allocatorIcEEEERNS4_IS7_EEEC1B8ne180100IDnSA_EEOT_OT0_, symObjAddr: 0x10578, symBinAddr: 0x100011C10, symSize: 0x3C }
  - { offset: 0x18DF9, size: 0x8, addend: 0x0, symName: __ZNSt3__117__compressed_pairIPPNS_12basic_stringIcNS_11char_traitsIcEENS_9allocatorIcEEEERNS4_IS7_EEEC2B8ne180100IDnSA_EEOT_OT0_, symObjAddr: 0x105F4, symBinAddr: 0x100011C8C, symSize: 0x48 }
  - { offset: 0x18E51, size: 0x8, addend: 0x0, symName: __ZNSt3__122__compressed_pair_elemIRNS_9allocatorIPNS_12basic_stringIcNS_11char_traitsIcEENS1_IcEEEEEELi1ELb0EEC2B8ne180100IS9_vEEOT_, symObjAddr: 0x1063C, symBinAddr: 0x100011CD4, symSize: 0x20 }
  - { offset: 0x18E93, size: 0x8, addend: 0x0, symName: __ZNSt3__19allocatorIPNS_12basic_stringIcNS_11char_traitsIcEENS0_IcEEEEE8allocateB8ne180100Em, symObjAddr: 0x1065C, symBinAddr: 0x100011CF4, symSize: 0x58 }
  - { offset: 0x18ED1, size: 0x8, addend: 0x0, symName: __ZNSt3__116allocator_traitsINS_9allocatorIPNS_12basic_stringIcNS_11char_traitsIcEENS1_IcEEEEEEE8max_sizeB8ne180100IS8_vEEmRKS8_, symObjAddr: 0x106B4, symBinAddr: 0x100011D4C, symSize: 0x24 }
  - { offset: 0x18EFF, size: 0x8, addend: 0x0, symName: __ZNKSt3__19allocatorIPNS_12basic_stringIcNS_11char_traitsIcEENS0_IcEEEEE8max_sizeB8ne180100Ev, symObjAddr: 0x106D8, symBinAddr: 0x100011D70, symSize: 0x14 }
  - { offset: 0x18F25, size: 0x8, addend: 0x0, symName: __ZNSt3__122__allocator_destructorINS_9allocatorINS_12basic_stringIcNS_11char_traitsIcEENS1_IcEEEEEEEC2B8ne180100ERS7_m, symObjAddr: 0x106EC, symBinAddr: 0x100011D84, symSize: 0x2C }
  - { offset: 0x18F6B, size: 0x8, addend: 0x0, symName: __ZNSt3__110unique_ptrIPNS_12basic_stringIcNS_11char_traitsIcEENS_9allocatorIcEEEENS_22__allocator_destructorINS4_IS6_EEEEEC2B8ne180100ILb1EvEES7_NS_16__dependent_typeINS_27__unique_ptr_deleter_sfinaeISA_EEXT_EE20__good_rval_ref_typeE, symObjAddr: 0x10718, symBinAddr: 0x100011DB0, symSize: 0x48 }
  - { offset: 0x18FBC, size: 0x8, addend: 0x0, symName: __ZNSt3__117__compressed_pairIPNS_12basic_stringIcNS_11char_traitsIcEENS_9allocatorIcEEEENS_22__allocator_destructorINS4_IS6_EEEEEC1B8ne180100IRS7_SA_EEOT_OT0_, symObjAddr: 0x10760, symBinAddr: 0x100011DF8, symSize: 0x3C }
  - { offset: 0x19014, size: 0x8, addend: 0x0, symName: __ZNSt3__117__compressed_pairIPNS_12basic_stringIcNS_11char_traitsIcEENS_9allocatorIcEEEENS_22__allocator_destructorINS4_IS6_EEEEEC2B8ne180100IRS7_SA_EEOT_OT0_, symObjAddr: 0x1079C, symBinAddr: 0x100011E34, symSize: 0x48 }
  - { offset: 0x1906C, size: 0x8, addend: 0x0, symName: __ZNSt3__122__compressed_pair_elemIPNS_12basic_stringIcNS_11char_traitsIcEENS_9allocatorIcEEEELi0ELb0EEC2B8ne180100IRS7_vEEOT_, symObjAddr: 0x107E4, symBinAddr: 0x100011E7C, symSize: 0x24 }
  - { offset: 0x190AE, size: 0x8, addend: 0x0, symName: __ZNSt3__122__compressed_pair_elemINS_22__allocator_destructorINS_9allocatorINS_12basic_stringIcNS_11char_traitsIcEENS2_IcEEEEEEEELi1ELb0EEC2B8ne180100IS9_vEEOT_, symObjAddr: 0x10808, symBinAddr: 0x100011EA0, symSize: 0x24 }
  - { offset: 0x190F0, size: 0x8, addend: 0x0, symName: __ZNKSt3__117__compressed_pairIPNS_12basic_stringIcNS_11char_traitsIcEENS_9allocatorIcEEEENS_22__allocator_destructorINS4_IS6_EEEEE5firstB8ne180100Ev, symObjAddr: 0x1082C, symBinAddr: 0x100011EC4, symSize: 0x24 }
  - { offset: 0x19116, size: 0x8, addend: 0x0, symName: __ZNSt3__117__compressed_pairIPNS_12basic_stringIcNS_11char_traitsIcEENS_9allocatorIcEEEENS_22__allocator_destructorINS4_IS6_EEEEE5firstB8ne180100Ev, symObjAddr: 0x10850, symBinAddr: 0x100011EE8, symSize: 0x24 }
  - { offset: 0x1913C, size: 0x8, addend: 0x0, symName: __ZNSt3__117__compressed_pairIPPNS_12basic_stringIcNS_11char_traitsIcEENS_9allocatorIcEEEENS4_IS7_EEE5firstB8ne180100Ev, symObjAddr: 0x10874, symBinAddr: 0x100011F0C, symSize: 0x24 }
  - { offset: 0x19162, size: 0x8, addend: 0x0, symName: __ZNSt3__122__compressed_pair_elemIPPNS_12basic_stringIcNS_11char_traitsIcEENS_9allocatorIcEEEELi0ELb0EE5__getB8ne180100Ev, symObjAddr: 0x10898, symBinAddr: 0x100011F30, symSize: 0x14 }
  - { offset: 0x19188, size: 0x8, addend: 0x0, symName: __ZNSt3__117__compressed_pairIPPNS_12basic_stringIcNS_11char_traitsIcEENS_9allocatorIcEEEERNS4_IS7_EEE5firstB8ne180100Ev, symObjAddr: 0x108AC, symBinAddr: 0x100011F44, symSize: 0x24 }
  - { offset: 0x191AE, size: 0x8, addend: 0x0, symName: __ZNSt3__110unique_ptrIPNS_12basic_stringIcNS_11char_traitsIcEENS_9allocatorIcEEEENS_22__allocator_destructorINS4_IS6_EEEEED2B8ne180100Ev, symObjAddr: 0x108D0, symBinAddr: 0x100011F68, symSize: 0x30 }
  - { offset: 0x191D8, size: 0x8, addend: 0x0, symName: __ZNSt3__110unique_ptrIPNS_12basic_stringIcNS_11char_traitsIcEENS_9allocatorIcEEEENS_22__allocator_destructorINS4_IS6_EEEEE5resetB8ne180100ES7_, symObjAddr: 0x10900, symBinAddr: 0x100011F98, symSize: 0x78 }
  - { offset: 0x1921C, size: 0x8, addend: 0x0, symName: __ZNSt3__117__compressed_pairIPNS_12basic_stringIcNS_11char_traitsIcEENS_9allocatorIcEEEENS_22__allocator_destructorINS4_IS6_EEEEE6secondB8ne180100Ev, symObjAddr: 0x10978, symBinAddr: 0x100012010, symSize: 0x28 }
  - { offset: 0x19242, size: 0x8, addend: 0x0, symName: __ZNSt3__122__allocator_destructorINS_9allocatorINS_12basic_stringIcNS_11char_traitsIcEENS1_IcEEEEEEEclB8ne180100EPS6_, symObjAddr: 0x109A0, symBinAddr: 0x100012038, symSize: 0x34 }
  - { offset: 0x19276, size: 0x8, addend: 0x0, symName: __ZNSt3__122__compressed_pair_elemINS_22__allocator_destructorINS_9allocatorINS_12basic_stringIcNS_11char_traitsIcEENS2_IcEEEEEEEELi1ELb0EE5__getB8ne180100Ev, symObjAddr: 0x109D4, symBinAddr: 0x10001206C, symSize: 0x14 }
  - { offset: 0x1929C, size: 0x8, addend: 0x0, symName: __ZNSt3__114__split_bufferIPNS_12basic_stringIcNS_11char_traitsIcEENS_9allocatorIcEEEERNS4_IS7_EEED2Ev, symObjAddr: 0x109E8, symBinAddr: 0x100012080, symSize: 0x8C }
  - { offset: 0x192C8, size: 0x8, addend: 0x0, symName: __ZNSt3__114__split_bufferIPNS_12basic_stringIcNS_11char_traitsIcEENS_9allocatorIcEEEERNS4_IS7_EEE5clearB8ne180100Ev, symObjAddr: 0x10A74, symBinAddr: 0x10001210C, symSize: 0x28 }
  - { offset: 0x192EE, size: 0x8, addend: 0x0, symName: __ZNKSt3__114__split_bufferIPNS_12basic_stringIcNS_11char_traitsIcEENS_9allocatorIcEEEERNS4_IS7_EEE8capacityB8ne180100Ev, symObjAddr: 0x10A9C, symBinAddr: 0x100012134, symSize: 0x40 }
  - { offset: 0x19314, size: 0x8, addend: 0x0, symName: __ZNSt3__114__split_bufferIPNS_12basic_stringIcNS_11char_traitsIcEENS_9allocatorIcEEEERNS4_IS7_EEE17__destruct_at_endB8ne180100EPS7_, symObjAddr: 0x10ADC, symBinAddr: 0x100012174, symSize: 0x2C }
  - { offset: 0x19348, size: 0x8, addend: 0x0, symName: __ZNSt3__114__split_bufferIPNS_12basic_stringIcNS_11char_traitsIcEENS_9allocatorIcEEEERNS4_IS7_EEE17__destruct_at_endB8ne180100EPS7_NS_17integral_constantIbLb0EEE, symObjAddr: 0x10B08, symBinAddr: 0x1000121A0, symSize: 0x80 }
  - { offset: 0x19388, size: 0x8, addend: 0x0, symName: __ZNKSt3__114__split_bufferIPNS_12basic_stringIcNS_11char_traitsIcEENS_9allocatorIcEEEERNS4_IS7_EEE9__end_capB8ne180100Ev, symObjAddr: 0x10B88, symBinAddr: 0x100012220, symSize: 0x28 }
  - { offset: 0x193AE, size: 0x8, addend: 0x0, symName: __ZNKSt3__117__compressed_pairIPPNS_12basic_stringIcNS_11char_traitsIcEENS_9allocatorIcEEEERNS4_IS7_EEE5firstB8ne180100Ev, symObjAddr: 0x10BB0, symBinAddr: 0x100012248, symSize: 0x24 }
  - { offset: 0x193D4, size: 0x8, addend: 0x0, symName: __ZNKSt3__15dequeINS_12basic_stringIcNS_11char_traitsIcEENS_9allocatorIcEEEENS4_IS6_EEE5emptyB8ne180100Ev, symObjAddr: 0x10BD4, symBinAddr: 0x10001226C, symSize: 0x30 }
  - { offset: 0x193FA, size: 0x8, addend: 0x0, symName: __ZNSt3__15dequeINS_12basic_stringIcNS_11char_traitsIcEENS_9allocatorIcEEEENS4_IS6_EEE4backEv, symObjAddr: 0x10C04, symBinAddr: 0x10001229C, symSize: 0x70 }
  - { offset: 0x19431, size: 0x8, addend: 0x0, symName: __ZNSt3__15dequeINS_12basic_stringIcNS_11char_traitsIcEENS_9allocatorIcEEEENS4_IS6_EEE8pop_backEv, symObjAddr: 0x10C74, symBinAddr: 0x10001230C, symSize: 0xE8 }
  - { offset: 0x19495, size: 0x8, addend: 0x0, symName: __ZNKSt3__15dequeINS_12basic_stringIcNS_11char_traitsIcEENS_9allocatorIcEEEENS4_IS6_EEE22__annotate_shrink_backB8ne180100Emm, symObjAddr: 0x10D5C, symBinAddr: 0x1000123F4, symSize: 0x18 }
  - { offset: 0x194D9, size: 0x8, addend: 0x0, symName: __ZNSt3__15dequeINS_12basic_stringIcNS_11char_traitsIcEENS_9allocatorIcEEEENS4_IS6_EEE25__maybe_remove_back_spareB8ne180100Eb, symObjAddr: 0x10D74, symBinAddr: 0x10001240C, symSize: 0xE8 }
  - { offset: 0x1950E, size: 0x8, addend: 0x0, symName: __ZNKSt3__15dequeINS_12basic_stringIcNS_11char_traitsIcEENS_9allocatorIcEEEENS4_IS6_EEE19__back_spare_blocksB8ne180100Ev, symObjAddr: 0x10E5C, symBinAddr: 0x1000124F4, symSize: 0x2C }
  - { offset: 0x19534, size: 0x8, addend: 0x0, symName: __ZNSt3__114__split_bufferIPNS_12basic_stringIcNS_11char_traitsIcEENS_9allocatorIcEEEENS4_IS7_EEE4backB8ne180100Ev, symObjAddr: 0x10E88, symBinAddr: 0x100012520, symSize: 0x1C }
  - { offset: 0x1955A, size: 0x8, addend: 0x0, symName: __ZNSt3__114__split_bufferIPNS_12basic_stringIcNS_11char_traitsIcEENS_9allocatorIcEEEENS4_IS7_EEE8pop_backB8ne180100Ev, symObjAddr: 0x10EA4, symBinAddr: 0x10001253C, symSize: 0x2C }
...
